Archive member included to satisfy reference by file (symbol)

d:/devkitPror43/libnds/lib\libnds9.a(biosCalls.o)
                              dswnifi_lib.o (swiDelay)
d:/devkitpror43/devkitarm/bin/../lib/gcc/arm-none-eabi/5.3.0/../../../../arm-none-eabi/lib\libm.a(lib_a-w_pow.o)
                              bios.o (pow)
d:/devkitpror43/devkitarm/bin/../lib/gcc/arm-none-eabi/5.3.0/../../../../arm-none-eabi/lib\libm.a(lib_a-w_sqrt.o)
                              bios.o (sqrt)
d:/devkitpror43/devkitarm/bin/../lib/gcc/arm-none-eabi/5.3.0/../../../../arm-none-eabi/lib\libm.a(lib_a-e_pow.o)
                              d:/devkitpror43/devkitarm/bin/../lib/gcc/arm-none-eabi/5.3.0/../../../../arm-none-eabi/lib\libm.a(lib_a-w_pow.o) (__ieee754_pow)
d:/devkitpror43/devkitarm/bin/../lib/gcc/arm-none-eabi/5.3.0/../../../../arm-none-eabi/lib\libm.a(lib_a-e_sqrt.o)
                              d:/devkitpror43/devkitarm/bin/../lib/gcc/arm-none-eabi/5.3.0/../../../../arm-none-eabi/lib\libm.a(lib_a-w_sqrt.o) (__ieee754_sqrt)
d:/devkitpror43/devkitarm/bin/../lib/gcc/arm-none-eabi/5.3.0/../../../../arm-none-eabi/lib\libm.a(lib_a-s_fabs.o)
                              d:/devkitpror43/devkitarm/bin/../lib/gcc/arm-none-eabi/5.3.0/../../../../arm-none-eabi/lib\libm.a(lib_a-e_pow.o) (fabs)
d:/devkitpror43/devkitarm/bin/../lib/gcc/arm-none-eabi/5.3.0/../../../../arm-none-eabi/lib\libm.a(lib_a-s_finite.o)
                              d:/devkitpror43/devkitarm/bin/../lib/gcc/arm-none-eabi/5.3.0/../../../../arm-none-eabi/lib\libm.a(lib_a-w_pow.o) (finite)
d:/devkitpror43/devkitarm/bin/../lib/gcc/arm-none-eabi/5.3.0/../../../../arm-none-eabi/lib\libm.a(lib_a-s_fpclassify.o)
                              d:/devkitpror43/devkitarm/bin/../lib/gcc/arm-none-eabi/5.3.0/../../../../arm-none-eabi/lib\libm.a(lib_a-w_pow.o) (__fpclassifyd)
d:/devkitpror43/devkitarm/bin/../lib/gcc/arm-none-eabi/5.3.0/../../../../arm-none-eabi/lib\libm.a(lib_a-s_lib_ver.o)
                              d:/devkitpror43/devkitarm/bin/../lib/gcc/arm-none-eabi/5.3.0/../../../../arm-none-eabi/lib\libm.a(lib_a-w_pow.o) (__fdlib_version)
d:/devkitpror43/devkitarm/bin/../lib/gcc/arm-none-eabi/5.3.0/../../../../arm-none-eabi/lib\libm.a(lib_a-s_matherr.o)
                              d:/devkitpror43/devkitarm/bin/../lib/gcc/arm-none-eabi/5.3.0/../../../../arm-none-eabi/lib\libm.a(lib_a-w_pow.o) (matherr)
d:/devkitpror43/devkitarm/bin/../lib/gcc/arm-none-eabi/5.3.0/../../../../arm-none-eabi/lib\libm.a(lib_a-s_nan.o)
                              d:/devkitpror43/devkitarm/bin/../lib/gcc/arm-none-eabi/5.3.0/../../../../arm-none-eabi/lib\libm.a(lib_a-e_pow.o) (nan)
d:/devkitpror43/devkitarm/bin/../lib/gcc/arm-none-eabi/5.3.0/../../../../arm-none-eabi/lib\libm.a(lib_a-s_rint.o)
                              d:/devkitpror43/devkitarm/bin/../lib/gcc/arm-none-eabi/5.3.0/../../../../arm-none-eabi/lib\libm.a(lib_a-w_pow.o) (rint)
d:/devkitpror43/devkitarm/bin/../lib/gcc/arm-none-eabi/5.3.0/../../../../arm-none-eabi/lib\libm.a(lib_a-s_scalbn.o)
                              d:/devkitpror43/devkitarm/bin/../lib/gcc/arm-none-eabi/5.3.0/../../../../arm-none-eabi/lib\libm.a(lib_a-e_pow.o) (scalbn)
d:/devkitpror43/devkitarm/bin/../lib/gcc/arm-none-eabi/5.3.0/../../../../arm-none-eabi/lib\libm.a(lib_a-s_copysign.o)
                              d:/devkitpror43/devkitarm/bin/../lib/gcc/arm-none-eabi/5.3.0/../../../../arm-none-eabi/lib\libm.a(lib_a-s_scalbn.o) (copysign)
d:/devkitpror43/devkitarm/bin/../lib/gcc/arm-none-eabi/5.3.0\libgcc.a(_udivsi3.o)
                              RTC.o (__aeabi_uidiv)
d:/devkitpror43/devkitarm/bin/../lib/gcc/arm-none-eabi/5.3.0\libgcc.a(_divsi3.o)
                              bios.o (__aeabi_idiv)
d:/devkitpror43/devkitarm/bin/../lib/gcc/arm-none-eabi/5.3.0\libgcc.a(_dvmd_tls.o)
                              d:/devkitpror43/devkitarm/bin/../lib/gcc/arm-none-eabi/5.3.0\libgcc.a(_udivsi3.o) (__aeabi_idiv0)
d:/devkitpror43/devkitarm/bin/../lib/gcc/arm-none-eabi/5.3.0\libgcc.a(_arm_addsubdf3.o)
                              bios.o (__aeabi_dsub)
d:/devkitpror43/devkitarm/bin/../lib/gcc/arm-none-eabi/5.3.0\libgcc.a(_arm_muldivdf3.o)
                              bios.o (__aeabi_dmul)
d:/devkitpror43/devkitarm/bin/../lib/gcc/arm-none-eabi/5.3.0\libgcc.a(_arm_cmpdf2.o)
                              d:/devkitpror43/devkitarm/bin/../lib/gcc/arm-none-eabi/5.3.0/../../../../arm-none-eabi/lib\libm.a(lib_a-w_pow.o) (__aeabi_dcmpeq)
d:/devkitpror43/devkitarm/bin/../lib/gcc/arm-none-eabi/5.3.0\libgcc.a(_arm_fixdfsi.o)
                              bios.o (__aeabi_d2iz)
d:/devkitpror43/devkitarm/bin/../lib/gcc/arm-none-eabi/5.3.0\libgcc.a(_arm_fixunsdfsi.o)
                              bios.o (__aeabi_d2uiz)
d:/devkitpror43/devkitarm/bin/../lib/gcc/arm-none-eabi/5.3.0/../../../../arm-none-eabi/lib\libc.a(lib_a-assert.o)
                              Util.o (__assert_func)
d:/devkitpror43/devkitarm/bin/../lib/gcc/arm-none-eabi/5.3.0/../../../../arm-none-eabi/lib\libc.a(lib_a-calloc.o)
                              dswnifi_lib.o (calloc)
d:/devkitpror43/devkitarm/bin/../lib/gcc/arm-none-eabi/5.3.0/../../../../arm-none-eabi/lib\libc.a(lib_a-callocr.o)
                              d:/devkitpror43/devkitarm/bin/../lib/gcc/arm-none-eabi/5.3.0/../../../../arm-none-eabi/lib\libc.a(lib_a-calloc.o) (_calloc_r)
d:/devkitpror43/devkitarm/bin/../lib/gcc/arm-none-eabi/5.3.0/../../../../arm-none-eabi/lib\libc.a(lib_a-ctype_.o)
                              directory.o (__ctype_ptr__)
d:/devkitpror43/devkitarm/bin/../lib/gcc/arm-none-eabi/5.3.0/../../../../arm-none-eabi/lib\libc.a(lib_a-errno.o)
                              sgIP_DHCP.o (__errno)
d:/devkitpror43/devkitarm/bin/../lib/gcc/arm-none-eabi/5.3.0/../../../../arm-none-eabi/lib\libc.a(lib_a-fclose.o)
                              GBA.arm.o (fclose)
d:/devkitpror43/devkitarm/bin/../lib/gcc/arm-none-eabi/5.3.0/../../../../arm-none-eabi/lib\libc.a(lib_a-fflush.o)
                              d:/devkitpror43/devkitarm/bin/../lib/gcc/arm-none-eabi/5.3.0/../../../../arm-none-eabi/lib\libc.a(lib_a-fclose.o) (__sflush_r)
d:/devkitpror43/devkitarm/bin/../lib/gcc/arm-none-eabi/5.3.0/../../../../arm-none-eabi/lib\libc.a(lib_a-findfp.o)
                              d:/devkitpror43/devkitarm/bin/../lib/gcc/arm-none-eabi/5.3.0/../../../../arm-none-eabi/lib\libc.a(lib_a-fclose.o) (__sinit)
d:/devkitpror43/devkitarm/bin/../lib/gcc/arm-none-eabi/5.3.0/../../../../arm-none-eabi/lib\libc.a(lib_a-fiprintf.o)
                              d:/devkitpror43/devkitarm/bin/../lib/gcc/arm-none-eabi/5.3.0/../../../../arm-none-eabi/lib\libc.a(lib_a-assert.o) (fiprintf)
d:/devkitpror43/devkitarm/bin/../lib/gcc/arm-none-eabi/5.3.0/../../../../arm-none-eabi/lib\libc.a(lib_a-fopen.o)
                              GBA.arm.o (fopen)
d:/devkitpror43/devkitarm/bin/../lib/gcc/arm-none-eabi/5.3.0/../../../../arm-none-eabi/lib\libc.a(lib_a-fputs.o)
                              cpumg.o (fputs)
d:/devkitpror43/devkitarm/bin/../lib/gcc/arm-none-eabi/5.3.0/../../../../arm-none-eabi/lib\libc.a(lib_a-fread.o)
                              GBA.arm.o (fread)
d:/devkitpror43/devkitarm/bin/../lib/gcc/arm-none-eabi/5.3.0/../../../../arm-none-eabi/lib\libc.a(lib_a-freer.o)
                              d:/devkitpror43/devkitarm/bin/../lib/gcc/arm-none-eabi/5.3.0/../../../../arm-none-eabi/lib\libc.a(lib_a-fclose.o) (_free_r)
d:/devkitpror43/devkitarm/bin/../lib/gcc/arm-none-eabi/5.3.0/../../../../arm-none-eabi/lib\libc.a(lib_a-fseek.o)
                              d:/devkitpror43/devkitarm/bin/../lib/gcc/arm-none-eabi/5.3.0/../../../../arm-none-eabi/lib\libc.a(lib_a-fopen.o) (_fseek_r)
d:/devkitpror43/devkitarm/bin/../lib/gcc/arm-none-eabi/5.3.0/../../../../arm-none-eabi/lib\libc.a(lib_a-fseeko.o)
                              d:/devkitpror43/devkitarm/bin/../lib/gcc/arm-none-eabi/5.3.0/../../../../arm-none-eabi/lib\libc.a(lib_a-fseek.o) (_fseeko_r)
d:/devkitpror43/devkitarm/bin/../lib/gcc/arm-none-eabi/5.3.0/../../../../arm-none-eabi/lib\libc.a(lib_a-ftell.o)
                              GBA.arm.o (ftell)
d:/devkitpror43/devkitarm/bin/../lib/gcc/arm-none-eabi/5.3.0/../../../../arm-none-eabi/lib\libc.a(lib_a-ftello.o)
                              d:/devkitpror43/devkitarm/bin/../lib/gcc/arm-none-eabi/5.3.0/../../../../arm-none-eabi/lib\libc.a(lib_a-ftell.o) (_ftello_r)
d:/devkitpror43/devkitarm/bin/../lib/gcc/arm-none-eabi/5.3.0/../../../../arm-none-eabi/lib\libc.a(lib_a-fvwrite.o)
                              d:/devkitpror43/devkitarm/bin/../lib/gcc/arm-none-eabi/5.3.0/../../../../arm-none-eabi/lib\libc.a(lib_a-fputs.o) (__sfvwrite_r)
d:/devkitpror43/devkitarm/bin/../lib/gcc/arm-none-eabi/5.3.0/../../../../arm-none-eabi/lib\libc.a(lib_a-fwalk.o)
                              d:/devkitpror43/devkitarm/bin/../lib/gcc/arm-none-eabi/5.3.0/../../../../arm-none-eabi/lib\libc.a(lib_a-findfp.o) (_fwalk)
d:/devkitpror43/devkitarm/bin/../lib/gcc/arm-none-eabi/5.3.0/../../../../arm-none-eabi/lib\libc.a(lib_a-fwrite.o)
                              GBA.arm.o (fwrite)
d:/devkitpror43/devkitarm/bin/../lib/gcc/arm-none-eabi/5.3.0/../../../../arm-none-eabi/lib\libc.a(lib_a-impure.o)
                              d:/devkitpror43/devkitarm/bin/../lib/gcc/arm-none-eabi/5.3.0/../../../../arm-none-eabi/lib\libc.a(lib_a-fflush.o) (_global_impure_ptr)
d:/devkitpror43/devkitarm/bin/../lib/gcc/arm-none-eabi/5.3.0/../../../../arm-none-eabi/lib\libc.a(lib_a-init.o)
                              d:/devkitpror43/devkitarm/bin/../lib/gcc/arm-none-eabi/5.3.0/../../../../arm-none-eabi/lib/ds_arm9_crt0.o (__libc_init_array)
d:/devkitpror43/devkitarm/bin/../lib/gcc/arm-none-eabi/5.3.0/../../../../arm-none-eabi/lib\libc.a(lib_a-iprintf.o)
                              GBA.arm.o (iprintf)
d:/devkitpror43/devkitarm/bin/../lib/gcc/arm-none-eabi/5.3.0/../../../../arm-none-eabi/lib\libc.a(lib_a-lcltime_r.o)
                              filetime.o (localtime_r)
d:/devkitpror43/devkitarm/bin/../lib/gcc/arm-none-eabi/5.3.0/../../../../arm-none-eabi/lib\libc.a(lib_a-locale.o)
                              directory.o (__locale_mb_cur_max)
d:/devkitpror43/devkitarm/bin/../lib/gcc/arm-none-eabi/5.3.0/../../../../arm-none-eabi/lib\libc.a(lib_a-makebuf.o)
                              d:/devkitpror43/devkitarm/bin/../lib/gcc/arm-none-eabi/5.3.0/../../../../arm-none-eabi/lib\libc.a(lib_a-fseeko.o) (__smakebuf_r)
d:/devkitpror43/devkitarm/bin/../lib/gcc/arm-none-eabi/5.3.0/../../../../arm-none-eabi/lib\libc.a(lib_a-malloc.o)
                              GBA.arm.o (malloc)
d:/devkitpror43/devkitarm/bin/../lib/gcc/arm-none-eabi/5.3.0/../../../../arm-none-eabi/lib\libc.a(lib_a-mallocr.o)
                              d:/devkitpror43/devkitarm/bin/../lib/gcc/arm-none-eabi/5.3.0/../../../../arm-none-eabi/lib\libc.a(lib_a-callocr.o) (_malloc_r)
d:/devkitpror43/devkitarm/bin/../lib/gcc/arm-none-eabi/5.3.0/../../../../arm-none-eabi/lib\libc.a(lib_a-mbrtowc.o)
                              directory.o (mbrtowc)
d:/devkitpror43/devkitarm/bin/../lib/gcc/arm-none-eabi/5.3.0/../../../../arm-none-eabi/lib\libc.a(lib_a-mbsrtowcs.o)
                              directory.o (mbsrtowcs)
d:/devkitpror43/devkitarm/bin/../lib/gcc/arm-none-eabi/5.3.0/../../../../arm-none-eabi/lib\libc.a(lib_a-mbtowc_r.o)
                              d:/devkitpror43/devkitarm/bin/../lib/gcc/arm-none-eabi/5.3.0/../../../../arm-none-eabi/lib\libc.a(lib_a-locale.o) (__utf8_mbtowc)
d:/devkitpror43/devkitarm/bin/../lib/gcc/arm-none-eabi/5.3.0/../../../../arm-none-eabi/lib\libc.a(lib_a-memchr.o)
                              d:/devkitpror43/devkitarm/bin/../lib/gcc/arm-none-eabi/5.3.0/../../../../arm-none-eabi/lib\libc.a(lib_a-fvwrite.o) (memchr)
d:/devkitpror43/devkitarm/bin/../lib/gcc/arm-none-eabi/5.3.0/../../../../arm-none-eabi/lib\libc.a(lib_a-memcmp.o)
                              Util.o (memcmp)
d:/devkitpror43/devkitarm/bin/../lib/gcc/arm-none-eabi/5.3.0/../../../../arm-none-eabi/lib\libc.a(lib_a-memcpy.o)
                              Flash.o (memcpy)
d:/devkitpror43/devkitarm/bin/../lib/gcc/arm-none-eabi/5.3.0/../../../../arm-none-eabi/lib\libc.a(lib_a-memmove.o)
                              directory.o (memmove)
d:/devkitpror43/devkitarm/bin/../lib/gcc/arm-none-eabi/5.3.0/../../../../arm-none-eabi/lib\libc.a(lib_a-memset.o)
                              EEprom.o (memset)
d:/devkitpror43/devkitarm/bin/../lib/gcc/arm-none-eabi/5.3.0/../../../../arm-none-eabi/lib\libc.a(lib_a-mktime.o)
                              filetime.o (mktime)
d:/devkitpror43/devkitarm/bin/../lib/gcc/arm-none-eabi/5.3.0/../../../../arm-none-eabi/lib\libc.a(lib_a-mlock.o)
                              d:/devkitpror43/devkitarm/bin/../lib/gcc/arm-none-eabi/5.3.0/../../../../arm-none-eabi/lib\libc.a(lib_a-freer.o) (__malloc_lock)
d:/devkitpror43/devkitarm/bin/../lib/gcc/arm-none-eabi/5.3.0/../../../../arm-none-eabi/lib\libc.a(lib_a-month_lengths.o)
                              d:/devkitpror43/devkitarm/bin/../lib/gcc/arm-none-eabi/5.3.0/../../../../arm-none-eabi/lib\libc.a(lib_a-lcltime_r.o) (__month_lengths)
d:/devkitpror43/devkitarm/bin/../lib/gcc/arm-none-eabi/5.3.0/../../../../arm-none-eabi/lib\libc.a(lib_a-printf.o)
                              Util.o (printf)
d:/devkitpror43/devkitarm/bin/../lib/gcc/arm-none-eabi/5.3.0/../../../../arm-none-eabi/lib\libc.a(lib_a-reallocr.o)
                              d:/devkitpror43/devkitarm/bin/../lib/gcc/arm-none-eabi/5.3.0/../../../../arm-none-eabi/lib\libc.a(lib_a-fvwrite.o) (_realloc_r)
d:/devkitpror43/devkitarm/bin/../lib/gcc/arm-none-eabi/5.3.0/../../../../arm-none-eabi/lib\libc.a(lib_a-refill.o)
                              d:/devkitpror43/devkitarm/bin/../lib/gcc/arm-none-eabi/5.3.0/../../../../arm-none-eabi/lib\libc.a(lib_a-fread.o) (__srefill_r)
d:/devkitpror43/devkitarm/bin/../lib/gcc/arm-none-eabi/5.3.0/../../../../arm-none-eabi/lib\libc.a(lib_a-setvbuf.o)
                              console.o (setvbuf)
d:/devkitpror43/devkitarm/bin/../lib/gcc/arm-none-eabi/5.3.0/../../../../arm-none-eabi/lib\libc.a(lib_a-siscanf.o)
                              console.o (siscanf)
d:/devkitpror43/devkitarm/bin/../lib/gcc/arm-none-eabi/5.3.0/../../../../arm-none-eabi/lib\libc.a(lib_a-sprintf.o)
                              Sound.arm.o (sprintf)
d:/devkitpror43/devkitarm/bin/../lib/gcc/arm-none-eabi/5.3.0/../../../../arm-none-eabi/lib\libc.a(lib_a-sscanf.o)
                              dswnifi_lib.o (sscanf)
d:/devkitpror43/devkitarm/bin/../lib/gcc/arm-none-eabi/5.3.0/../../../../arm-none-eabi/lib\libc.a(lib_a-stdio.o)
                              d:/devkitpror43/devkitarm/bin/../lib/gcc/arm-none-eabi/5.3.0/../../../../arm-none-eabi/lib\libc.a(lib_a-findfp.o) (__sread)
d:/devkitpror43/devkitarm/bin/../lib/gcc/arm-none-eabi/5.3.0/../../../../arm-none-eabi/lib\libc.a(lib_a-strcasecmp.o)
                              Util.o (strcasecmp)
d:/devkitpror43/devkitarm/bin/../lib/gcc/arm-none-eabi/5.3.0/../../../../arm-none-eabi/lib\libc.a(lib_a-strcat.o)
                              libfat.o (strcat)
d:/devkitpror43/devkitarm/bin/../lib/gcc/arm-none-eabi/5.3.0/../../../../arm-none-eabi/lib\libc.a(lib_a-strchr.o)
                              dswnifi_lib.o (strchr)
d:/devkitpror43/devkitarm/bin/../lib/gcc/arm-none-eabi/5.3.0/../../../../arm-none-eabi/lib\libc.a(lib_a-strcmp.o)
                              directory.o (strcmp)
d:/devkitpror43/devkitarm/bin/../lib/gcc/arm-none-eabi/5.3.0/../../../../arm-none-eabi/lib\libc.a(lib_a-strcpy.o)
                              Util.o (strcpy)
d:/devkitpror43/devkitarm/bin/../lib/gcc/arm-none-eabi/5.3.0/../../../../arm-none-eabi/lib\libc.a(lib_a-strlcpy.o)
                              d:/devkitpror43/devkitarm/bin/../lib/gcc/arm-none-eabi/5.3.0/../../../../arm-none-eabi/lib\libc.a(lib_a-locale.o) (strlcpy)
d:/devkitpror43/devkitarm/bin/../lib/gcc/arm-none-eabi/5.3.0/../../../../arm-none-eabi/lib\libc.a(lib_a-strlen.o)
                              Util.o (strlen)
d:/devkitpror43/devkitarm/bin/../lib/gcc/arm-none-eabi/5.3.0/../../../../arm-none-eabi/lib\libc.a(lib_a-strncasecmp.o)
                              directory.o (strncasecmp)
d:/devkitpror43/devkitarm/bin/../lib/gcc/arm-none-eabi/5.3.0/../../../../arm-none-eabi/lib\libc.a(lib_a-strncmp.o)
                              Util.o (strncmp)
d:/devkitpror43/devkitarm/bin/../lib/gcc/arm-none-eabi/5.3.0/../../../../arm-none-eabi/lib\libc.a(lib_a-strncpy.o)
                              sgIP_DHCP.o (strncpy)
d:/devkitpror43/devkitarm/bin/../lib/gcc/arm-none-eabi/5.3.0/../../../../arm-none-eabi/lib\libc.a(lib_a-strnlen.o)
                              directory.o (strnlen)
d:/devkitpror43/devkitarm/bin/../lib/gcc/arm-none-eabi/5.3.0/../../../../arm-none-eabi/lib\libc.a(lib_a-strpbrk.o)
                              directory.o (strpbrk)
d:/devkitpror43/devkitarm/bin/../lib/gcc/arm-none-eabi/5.3.0/../../../../arm-none-eabi/lib\libc.a(lib_a-strrchr.o)
                              Util.o (strrchr)
d:/devkitpror43/devkitarm/bin/../lib/gcc/arm-none-eabi/5.3.0/../../../../arm-none-eabi/lib\libc.a(lib_a-strtol.o)
                              d:/devkitpror43/devkitarm/bin/../lib/gcc/arm-none-eabi/5.3.0/../../../../arm-none-eabi/lib\libc.a(lib_a-locale.o) (_strtol_r)
d:/devkitpror43/devkitarm/bin/../lib/gcc/arm-none-eabi/5.3.0/../../../../arm-none-eabi/lib\libc.a(lib_a-svfiscanf.o)
                              d:/devkitpror43/devkitarm/bin/../lib/gcc/arm-none-eabi/5.3.0/../../../../arm-none-eabi/lib\libc.a(lib_a-siscanf.o) (__ssvfiscanf_r)
d:/devkitpror43/devkitarm/bin/../lib/gcc/arm-none-eabi/5.3.0/../../../../arm-none-eabi/lib\libc.a(lib_a-svfprintf.o)
                              d:/devkitpror43/devkitarm/bin/../lib/gcc/arm-none-eabi/5.3.0/../../../../arm-none-eabi/lib\libc.a(lib_a-sprintf.o) (_svfprintf_r)
d:/devkitpror43/devkitarm/bin/../lib/gcc/arm-none-eabi/5.3.0/../../../../arm-none-eabi/lib\libc.a(lib_a-svfscanf.o)
                              d:/devkitpror43/devkitarm/bin/../lib/gcc/arm-none-eabi/5.3.0/../../../../arm-none-eabi/lib\libc.a(lib_a-sscanf.o) (__ssvfscanf_r)
d:/devkitpror43/devkitarm/bin/../lib/gcc/arm-none-eabi/5.3.0/../../../../arm-none-eabi/lib\libc.a(lib_a-sysclose.o)
                              dswnifi_lib.o (close)
d:/devkitpror43/devkitarm/bin/../lib/gcc/arm-none-eabi/5.3.0/../../../../arm-none-eabi/lib\libc.a(lib_a-sysread.o)
                              dswnifi_lib.o (read)
d:/devkitpror43/devkitarm/bin/../lib/gcc/arm-none-eabi/5.3.0/../../../../arm-none-eabi/lib\libc.a(lib_a-syssbrk.o)
                              Util.o (sbrk)
d:/devkitpror43/devkitarm/bin/../lib/gcc/arm-none-eabi/5.3.0/../../../../arm-none-eabi/lib\libc.a(lib_a-syswrite.o)
                              dswnifi_lib.o (write)
d:/devkitpror43/devkitarm/bin/../lib/gcc/arm-none-eabi/5.3.0/../../../../arm-none-eabi/lib\libc.a(lib_a-time.o)
                              filetime.o (time)
d:/devkitpror43/devkitarm/bin/../lib/gcc/arm-none-eabi/5.3.0/../../../../arm-none-eabi/lib\libc.a(lib_a-tolower.o)
                              Util.o (tolower)
d:/devkitpror43/devkitarm/bin/../lib/gcc/arm-none-eabi/5.3.0/../../../../arm-none-eabi/lib\libc.a(lib_a-toupper.o)
                              Util.o (toupper)
d:/devkitpror43/devkitarm/bin/../lib/gcc/arm-none-eabi/5.3.0/../../../../arm-none-eabi/lib\libc.a(lib_a-towlower.o)
                              directory.o (towlower)
d:/devkitpror43/devkitarm/bin/../lib/gcc/arm-none-eabi/5.3.0/../../../../arm-none-eabi/lib\libc.a(lib_a-towupper.o)
                              directory.o (towupper)
d:/devkitpror43/devkitarm/bin/../lib/gcc/arm-none-eabi/5.3.0/../../../../arm-none-eabi/lib\libc.a(lib_a-tzcalc_limits.o)
                              d:/devkitpror43/devkitarm/bin/../lib/gcc/arm-none-eabi/5.3.0/../../../../arm-none-eabi/lib\libc.a(lib_a-lcltime_r.o) (__tzcalc_limits)
d:/devkitpror43/devkitarm/bin/../lib/gcc/arm-none-eabi/5.3.0/../../../../arm-none-eabi/lib\libc.a(lib_a-tzlock.o)
                              d:/devkitpror43/devkitarm/bin/../lib/gcc/arm-none-eabi/5.3.0/../../../../arm-none-eabi/lib\libc.a(lib_a-lcltime_r.o) (__tz_lock)
d:/devkitpror43/devkitarm/bin/../lib/gcc/arm-none-eabi/5.3.0/../../../../arm-none-eabi/lib\libc.a(lib_a-tzvars.o)
                              d:/devkitpror43/devkitarm/bin/../lib/gcc/arm-none-eabi/5.3.0/../../../../arm-none-eabi/lib\libc.a(lib_a-lcltime_r.o) (_daylight)
d:/devkitpror43/devkitarm/bin/../lib/gcc/arm-none-eabi/5.3.0/../../../../arm-none-eabi/lib\libc.a(lib_a-ungetc.o)
                              d:/devkitpror43/devkitarm/bin/../lib/gcc/arm-none-eabi/5.3.0/../../../../arm-none-eabi/lib\libc.a(lib_a-svfiscanf.o) (__submore)
d:/devkitpror43/devkitarm/bin/../lib/gcc/arm-none-eabi/5.3.0/../../../../arm-none-eabi/lib\libc.a(lib_a-vfiprintf.o)
                              d:/devkitpror43/devkitarm/bin/../lib/gcc/arm-none-eabi/5.3.0/../../../../arm-none-eabi/lib\libc.a(lib_a-fiprintf.o) (_vfiprintf_r)
d:/devkitpror43/devkitarm/bin/../lib/gcc/arm-none-eabi/5.3.0/../../../../arm-none-eabi/lib\libc.a(lib_a-vfprintf.o)
                              d:/devkitpror43/devkitarm/bin/../lib/gcc/arm-none-eabi/5.3.0/../../../../arm-none-eabi/lib\libc.a(lib_a-printf.o) (_vfprintf_r)
d:/devkitpror43/devkitarm/bin/../lib/gcc/arm-none-eabi/5.3.0/../../../../arm-none-eabi/lib\libc.a(lib_a-vsnprintf.o)
                              System.o (vsnprintf)
d:/devkitpror43/devkitarm/bin/../lib/gcc/arm-none-eabi/5.3.0/../../../../arm-none-eabi/lib\libc.a(lib_a-wcrtomb.o)
                              d:/devkitpror43/devkitarm/bin/../lib/gcc/arm-none-eabi/5.3.0/../../../../arm-none-eabi/lib\libc.a(lib_a-svfprintf.o) (_wcrtomb_r)
d:/devkitpror43/devkitarm/bin/../lib/gcc/arm-none-eabi/5.3.0/../../../../arm-none-eabi/lib\libc.a(lib_a-wcsrtombs.o)
                              d:/devkitpror43/devkitarm/bin/../lib/gcc/arm-none-eabi/5.3.0/../../../../arm-none-eabi/lib\libc.a(lib_a-svfprintf.o) (_wcsrtombs_r)
d:/devkitpror43/devkitarm/bin/../lib/gcc/arm-none-eabi/5.3.0/../../../../arm-none-eabi/lib\libc.a(lib_a-wctob.o)
                              directory.o (wctob)
d:/devkitpror43/devkitarm/bin/../lib/gcc/arm-none-eabi/5.3.0/../../../../arm-none-eabi/lib\libc.a(lib_a-wctomb_r.o)
                              d:/devkitpror43/devkitarm/bin/../lib/gcc/arm-none-eabi/5.3.0/../../../../arm-none-eabi/lib\libc.a(lib_a-locale.o) (__utf8_wctomb)
d:/devkitpror43/devkitarm/bin/../lib/gcc/arm-none-eabi/5.3.0/../../../../arm-none-eabi/lib\libc.a(lib_a-wsetup.o)
                              d:/devkitpror43/devkitarm/bin/../lib/gcc/arm-none-eabi/5.3.0/../../../../arm-none-eabi/lib\libc.a(lib_a-fvwrite.o) (__swsetup_r)
d:/devkitpror43/devkitarm/bin/../lib/gcc/arm-none-eabi/5.3.0/../../../../arm-none-eabi/lib\libc.a(lib_a-abort.o)
                              d:/devkitpror43/devkitarm/bin/../lib/gcc/arm-none-eabi/5.3.0/../../../../arm-none-eabi/lib\libc.a(lib_a-assert.o) (abort)
d:/devkitpror43/devkitarm/bin/../lib/gcc/arm-none-eabi/5.3.0/../../../../arm-none-eabi/lib\libc.a(lib_a-div.o)
                              d:/devkitpror43/devkitarm/bin/../lib/gcc/arm-none-eabi/5.3.0/../../../../arm-none-eabi/lib\libc.a(lib_a-mktime.o) (div)
d:/devkitpror43/devkitarm/bin/../lib/gcc/arm-none-eabi/5.3.0/../../../../arm-none-eabi/lib\libc.a(lib_a-dtoa.o)
                              d:/devkitpror43/devkitarm/bin/../lib/gcc/arm-none-eabi/5.3.0/../../../../arm-none-eabi/lib\libc.a(lib_a-svfprintf.o) (_dtoa_r)
d:/devkitpror43/devkitarm/bin/../lib/gcc/arm-none-eabi/5.3.0/../../../../arm-none-eabi/lib\libc.a(lib_a-flags.o)
                              d:/devkitpror43/devkitarm/bin/../lib/gcc/arm-none-eabi/5.3.0/../../../../arm-none-eabi/lib\libc.a(lib_a-fopen.o) (__sflags)
d:/devkitpror43/devkitarm/bin/../lib/gcc/arm-none-eabi/5.3.0/../../../../arm-none-eabi/lib\libc.a(lib_a-fputwc.o)
                              d:/devkitpror43/devkitarm/bin/../lib/gcc/arm-none-eabi/5.3.0/../../../../arm-none-eabi/lib\libc.a(lib_a-vfiprintf.o) (_fputwc_r)
d:/devkitpror43/devkitarm/bin/../lib/gcc/arm-none-eabi/5.3.0/../../../../arm-none-eabi/lib\libc.a(lib_a-getenv_r.o)
                              d:/devkitpror43/devkitarm/bin/../lib/gcc/arm-none-eabi/5.3.0/../../../../arm-none-eabi/lib\libc.a(lib_a-locale.o) (_getenv_r)
d:/devkitpror43/devkitarm/bin/../lib/gcc/arm-none-eabi/5.3.0/../../../../arm-none-eabi/lib\libc.a(lib_a-gettzinfo.o)
                              d:/devkitpror43/devkitarm/bin/../lib/gcc/arm-none-eabi/5.3.0/../../../../arm-none-eabi/lib\libc.a(lib_a-lcltime_r.o) (__gettzinfo)
d:/devkitpror43/devkitarm/bin/../lib/gcc/arm-none-eabi/5.3.0/../../../../arm-none-eabi/lib\libc.a(lib_a-gmtime_r.o)
                              d:/devkitpror43/devkitarm/bin/../lib/gcc/arm-none-eabi/5.3.0/../../../../arm-none-eabi/lib\libc.a(lib_a-lcltime_r.o) (gmtime_r)
d:/devkitpror43/devkitarm/bin/../lib/gcc/arm-none-eabi/5.3.0/../../../../arm-none-eabi/lib\libc.a(lib_a-iswspace.o)
                              d:/devkitpror43/devkitarm/bin/../lib/gcc/arm-none-eabi/5.3.0/../../../../arm-none-eabi/lib\libc.a(lib_a-svfiscanf.o) (iswspace)
d:/devkitpror43/devkitarm/bin/../lib/gcc/arm-none-eabi/5.3.0/../../../../arm-none-eabi/lib\libc.a(lib_a-jp2uc.o)
                              d:/devkitpror43/devkitarm/bin/../lib/gcc/arm-none-eabi/5.3.0/../../../../arm-none-eabi/lib\libc.a(lib_a-towlower.o) (_jp2uc)
d:/devkitpror43/devkitarm/bin/../lib/gcc/arm-none-eabi/5.3.0/../../../../arm-none-eabi/lib\libc.a(lib_a-mbsnrtowcs.o)
                              d:/devkitpror43/devkitarm/bin/../lib/gcc/arm-none-eabi/5.3.0/../../../../arm-none-eabi/lib\libc.a(lib_a-mbsrtowcs.o) (_mbsnrtowcs_r)
d:/devkitpror43/devkitarm/bin/../lib/gcc/arm-none-eabi/5.3.0/../../../../arm-none-eabi/lib\libc.a(lib_a-mprec.o)
                              d:/devkitpror43/devkitarm/bin/../lib/gcc/arm-none-eabi/5.3.0/../../../../arm-none-eabi/lib\libc.a(lib_a-dtoa.o) (_Balloc)
d:/devkitpror43/devkitarm/bin/../lib/gcc/arm-none-eabi/5.3.0/../../../../arm-none-eabi/lib\libc.a(lib_a-sccl.o)
                              d:/devkitpror43/devkitarm/bin/../lib/gcc/arm-none-eabi/5.3.0/../../../../arm-none-eabi/lib\libc.a(lib_a-svfiscanf.o) (__sccl)
d:/devkitpror43/devkitarm/bin/../lib/gcc/arm-none-eabi/5.3.0/../../../../arm-none-eabi/lib\libc.a(lib_a-sf_nan.o)
                              d:/devkitpror43/devkitarm/bin/../lib/gcc/arm-none-eabi/5.3.0/../../../../arm-none-eabi/lib\libc.a(lib_a-svfscanf.o) (nanf)
d:/devkitpror43/devkitarm/bin/../lib/gcc/arm-none-eabi/5.3.0/../../../../arm-none-eabi/lib\libc.a(lib_a-s_frexp.o)
                              d:/devkitpror43/devkitarm/bin/../lib/gcc/arm-none-eabi/5.3.0/../../../../arm-none-eabi/lib\libc.a(lib_a-svfprintf.o) (frexp)
d:/devkitpror43/devkitarm/bin/../lib/gcc/arm-none-eabi/5.3.0/../../../../arm-none-eabi/lib\libc.a(lib_a-signal.o)
                              d:/devkitpror43/devkitarm/bin/../lib/gcc/arm-none-eabi/5.3.0/../../../../arm-none-eabi/lib\libc.a(lib_a-abort.o) (raise)
d:/devkitpror43/devkitarm/bin/../lib/gcc/arm-none-eabi/5.3.0/../../../../arm-none-eabi/lib\libc.a(lib_a-stpncpy.o)
                              d:/devkitpror43/devkitarm/bin/../lib/gcc/arm-none-eabi/5.3.0/../../../../arm-none-eabi/lib\libc.a(lib_a-svfscanf.o) (stpncpy)
d:/devkitpror43/devkitarm/bin/../lib/gcc/arm-none-eabi/5.3.0/../../../../arm-none-eabi/lib\libc.a(lib_a-strtod.o)
                              d:/devkitpror43/devkitarm/bin/../lib/gcc/arm-none-eabi/5.3.0/../../../../arm-none-eabi/lib\libc.a(lib_a-svfscanf.o) (_strtod_r)
d:/devkitpror43/devkitarm/bin/../lib/gcc/arm-none-eabi/5.3.0/../../../../arm-none-eabi/lib\libc.a(lib_a-strtoll_r.o)
                              d:/devkitpror43/devkitarm/bin/../lib/gcc/arm-none-eabi/5.3.0/../../../../arm-none-eabi/lib\libc.a(lib_a-svfiscanf.o) (_strtoll_r)
d:/devkitpror43/devkitarm/bin/../lib/gcc/arm-none-eabi/5.3.0/../../../../arm-none-eabi/lib\libc.a(lib_a-strtoull_r.o)
                              d:/devkitpror43/devkitarm/bin/../lib/gcc/arm-none-eabi/5.3.0/../../../../arm-none-eabi/lib\libc.a(lib_a-svfiscanf.o) (_strtoull_r)
d:/devkitpror43/devkitarm/bin/../lib/gcc/arm-none-eabi/5.3.0/../../../../arm-none-eabi/lib\libc.a(lib_a-strtoul.o)
                              d:/devkitpror43/devkitarm/bin/../lib/gcc/arm-none-eabi/5.3.0/../../../../arm-none-eabi/lib\libc.a(lib_a-svfiscanf.o) (_strtoul_r)
d:/devkitpror43/devkitarm/bin/../lib/gcc/arm-none-eabi/5.3.0/../../../../arm-none-eabi/lib\libc.a(lib_a-svfiprintf.o)
                              d:/devkitpror43/devkitarm/bin/../lib/gcc/arm-none-eabi/5.3.0/../../../../arm-none-eabi/lib\libc.a(lib_a-svfprintf.o) (__ssprint_r)
d:/devkitpror43/devkitarm/bin/../lib/gcc/arm-none-eabi/5.3.0/../../../../arm-none-eabi/lib\libc.a(lib_a-wbuf.o)
                              d:/devkitpror43/devkitarm/bin/../lib/gcc/arm-none-eabi/5.3.0/../../../../arm-none-eabi/lib\libc.a(lib_a-fputwc.o) (__swbuf_r)
d:/devkitpror43/devkitarm/bin/../lib/gcc/arm-none-eabi/5.3.0/../../../../arm-none-eabi/lib\libc.a(lib_a-wcsnrtombs.o)
                              d:/devkitpror43/devkitarm/bin/../lib/gcc/arm-none-eabi/5.3.0/../../../../arm-none-eabi/lib\libc.a(lib_a-wcsrtombs.o) (_wcsnrtombs_r)
d:/devkitpror43/devkitarm/bin/../lib/gcc/arm-none-eabi/5.3.0/../../../../arm-none-eabi/lib\libc.a(lib_a-environ.o)
                              d:/devkitpror43/devkitarm/bin/../lib/gcc/arm-none-eabi/5.3.0/../../../../arm-none-eabi/lib\libc.a(lib_a-getenv_r.o) (environ)
d:/devkitpror43/devkitarm/bin/../lib/gcc/arm-none-eabi/5.3.0/../../../../arm-none-eabi/lib\libc.a(lib_a-envlock.o)
                              d:/devkitpror43/devkitarm/bin/../lib/gcc/arm-none-eabi/5.3.0/../../../../arm-none-eabi/lib\libc.a(lib_a-getenv_r.o) (__env_lock)
d:/devkitpror43/devkitarm/bin/../lib/gcc/arm-none-eabi/5.3.0/../../../../arm-none-eabi/lib\libc.a(lib_a-gdtoa-gethex.o)
                              d:/devkitpror43/devkitarm/bin/../lib/gcc/arm-none-eabi/5.3.0/../../../../arm-none-eabi/lib\libc.a(lib_a-strtod.o) (__gethex)
d:/devkitpror43/devkitarm/bin/../lib/gcc/arm-none-eabi/5.3.0/../../../../arm-none-eabi/lib\libc.a(lib_a-gdtoa-hexnan.o)
                              d:/devkitpror43/devkitarm/bin/../lib/gcc/arm-none-eabi/5.3.0/../../../../arm-none-eabi/lib\libc.a(lib_a-strtod.o) (__hexnan)
d:/devkitpror43/devkitarm/bin/../lib/gcc/arm-none-eabi/5.3.0/../../../../arm-none-eabi/lib\libsysbase.a(iosupport.o)
                              libfat.o (FindDevice)
d:/devkitpror43/devkitarm/bin/../lib/gcc/arm-none-eabi/5.3.0/../../../../arm-none-eabi/lib\libsysbase.a(close.o)
                              d:/devkitpror43/devkitarm/bin/../lib/gcc/arm-none-eabi/5.3.0/../../../../arm-none-eabi/lib\libc.a(lib_a-stdio.o) (_close_r)
d:/devkitpror43/devkitarm/bin/../lib/gcc/arm-none-eabi/5.3.0/../../../../arm-none-eabi/lib\libsysbase.a(fstat.o)
                              d:/devkitpror43/devkitarm/bin/../lib/gcc/arm-none-eabi/5.3.0/../../../../arm-none-eabi/lib\libc.a(lib_a-fseeko.o) (_fstat_r)
d:/devkitpror43/devkitarm/bin/../lib/gcc/arm-none-eabi/5.3.0/../../../../arm-none-eabi/lib\libsysbase.a(getpid.o)
                              d:/devkitpror43/devkitarm/bin/../lib/gcc/arm-none-eabi/5.3.0/../../../../arm-none-eabi/lib\libc.a(lib_a-signal.o) (_getpid_r)
d:/devkitpror43/devkitarm/bin/../lib/gcc/arm-none-eabi/5.3.0/../../../../arm-none-eabi/lib\libsysbase.a(gettod.o)
                              d:/devkitpror43/devkitarm/bin/../lib/gcc/arm-none-eabi/5.3.0/../../../../arm-none-eabi/lib\libc.a(lib_a-time.o) (_gettimeofday_r)
d:/devkitpror43/devkitarm/bin/../lib/gcc/arm-none-eabi/5.3.0/../../../../arm-none-eabi/lib\libsysbase.a(isatty.o)
                              d:/devkitpror43/devkitarm/bin/../lib/gcc/arm-none-eabi/5.3.0/../../../../arm-none-eabi/lib\libc.a(lib_a-makebuf.o) (_isatty_r)
d:/devkitpror43/devkitarm/bin/../lib/gcc/arm-none-eabi/5.3.0/../../../../arm-none-eabi/lib\libsysbase.a(kill.o)
                              d:/devkitpror43/devkitarm/bin/../lib/gcc/arm-none-eabi/5.3.0/../../../../arm-none-eabi/lib\libc.a(lib_a-signal.o) (_kill_r)
d:/devkitpror43/devkitarm/bin/../lib/gcc/arm-none-eabi/5.3.0/../../../../arm-none-eabi/lib\libsysbase.a(lseek.o)
                              d:/devkitpror43/devkitarm/bin/../lib/gcc/arm-none-eabi/5.3.0/../../../../arm-none-eabi/lib\libc.a(lib_a-stdio.o) (_lseek_r)
d:/devkitpror43/devkitarm/bin/../lib/gcc/arm-none-eabi/5.3.0/../../../../arm-none-eabi/lib\libsysbase.a(open.o)
                              d:/devkitpror43/devkitarm/bin/../lib/gcc/arm-none-eabi/5.3.0/../../../../arm-none-eabi/lib\libc.a(lib_a-fopen.o) (_open_r)
d:/devkitpror43/devkitarm/bin/../lib/gcc/arm-none-eabi/5.3.0/../../../../arm-none-eabi/lib\libsysbase.a(read.o)
                              d:/devkitpror43/devkitarm/bin/../lib/gcc/arm-none-eabi/5.3.0/../../../../arm-none-eabi/lib\libc.a(lib_a-stdio.o) (_read_r)
d:/devkitpror43/devkitarm/bin/../lib/gcc/arm-none-eabi/5.3.0/../../../../arm-none-eabi/lib\libsysbase.a(sbrk.o)
                              d:/devkitpror43/devkitarm/bin/../lib/gcc/arm-none-eabi/5.3.0/../../../../arm-none-eabi/lib\libc.a(lib_a-freer.o) (_sbrk_r)
d:/devkitpror43/devkitarm/bin/../lib/gcc/arm-none-eabi/5.3.0/../../../../arm-none-eabi/lib\libsysbase.a(write.o)
                              d:/devkitpror43/devkitarm/bin/../lib/gcc/arm-none-eabi/5.3.0/../../../../arm-none-eabi/lib\libc.a(lib_a-stdio.o) (_write_r)
d:/devkitpror43/devkitarm/bin/../lib/gcc/arm-none-eabi/5.3.0/../../../../arm-none-eabi/lib\libsysbase.a(_exit.o)
                              d:/devkitpror43/devkitarm/bin/../lib/gcc/arm-none-eabi/5.3.0/../../../../arm-none-eabi/lib\libc.a(lib_a-abort.o) (_exit)
d:/devkitpror43/devkitarm/bin/../lib/gcc/arm-none-eabi/5.3.0/../../../../arm-none-eabi/lib\libsysbase.a(malloc_vars.o)
                              d:/devkitpror43/devkitarm/bin/../lib/gcc/arm-none-eabi/5.3.0/../../../../arm-none-eabi/lib/ds_arm9_crt0.o (fake_heap_start)
d:/devkitpror43/devkitarm/bin/../lib/gcc/arm-none-eabi/5.3.0/../../../../arm-none-eabi/lib\libsysbase.a(chdir.o)
                              libfat.o (chdir)
d:/devkitpror43/devkitarm/bin/../lib/gcc/arm-none-eabi/5.3.0/../../../../arm-none-eabi/lib\libsysbase.a(build_argv.o)
                              d:/devkitpror43/devkitarm/bin/../lib/gcc/arm-none-eabi/5.3.0/../../../../arm-none-eabi/lib/ds_arm9_crt0.o (build_argv)
d:/devkitpror43/devkitarm/bin/../lib/gcc/arm-none-eabi/5.3.0/../../../../arm-none-eabi/lib\libsysbase.a(flock.o)
                              d:/devkitpror43/devkitarm/bin/../lib/gcc/arm-none-eabi/5.3.0/../../../../arm-none-eabi/lib\libc.a(lib_a-fclose.o) (__flockfile)
d:/devkitpror43/devkitarm/bin/../lib/gcc/arm-none-eabi/5.3.0/../../../../arm-none-eabi/lib\libsysbase.a(syscall_support.o)
                              d:/devkitpror43/devkitarm/bin/../lib/gcc/arm-none-eabi/5.3.0/../../../../arm-none-eabi/lib\libc.a(lib_a-tzlock.o) (__libc_lock_acquire)
d:/devkitpror43/devkitarm/bin/../lib/gcc/arm-none-eabi/5.3.0/../../../../arm-none-eabi/lib\libsysbase.a(handle_manager.o)
                              d:/devkitpror43/devkitarm/bin/../lib/gcc/arm-none-eabi/5.3.0/../../../../arm-none-eabi/lib\libsysbase.a(close.o) (__release_handle)
d:/devkitpror43/devkitarm/bin/../lib/gcc/arm-none-eabi/5.3.0/../../../../arm-none-eabi/lib\libsysbase.a(dirent.o)
                              Util.o (opendir)
d:/devkitpror43/devkitarm/bin/../lib/gcc/arm-none-eabi/5.3.0/../../../../arm-none-eabi/lib\libsysbase.a(getreent.o)
                              console.o (__getreent)
d:/devkitpror43/devkitarm/bin/../lib/gcc/arm-none-eabi/5.3.0\libgcc.a(_arm_truncdfsf2.o)
                              d:/devkitpror43/devkitarm/bin/../lib/gcc/arm-none-eabi/5.3.0/../../../../arm-none-eabi/lib\libc.a(lib_a-svfscanf.o) (__aeabi_d2f)
d:/devkitpror43/devkitarm/bin/../lib/gcc/arm-none-eabi/5.3.0\libgcc.a(_aeabi_uldivmod.o)
                              d:/devkitpror43/devkitarm/bin/../lib/gcc/arm-none-eabi/5.3.0/../../../../arm-none-eabi/lib\libc.a(lib_a-svfprintf.o) (__aeabi_uldivmod)
d:/devkitpror43/devkitarm/bin/../lib/gcc/arm-none-eabi/5.3.0\libgcc.a(_udivmoddi4.o)
                              d:/devkitpror43/devkitarm/bin/../lib/gcc/arm-none-eabi/5.3.0\libgcc.a(_aeabi_uldivmod.o) (__udivmoddi4)
d:/devkitpror43/devkitarm/bin/../lib/gcc/arm-none-eabi/5.3.0\libgcc.a(_clzdi2.o)
                              d:/devkitpror43/devkitarm/bin/../lib/gcc/arm-none-eabi/5.3.0\libgcc.a(_udivmoddi4.o) (__clzdi2)
d:/devkitpror43/devkitarm/bin/../lib/gcc/arm-none-eabi/5.3.0\libgcc.a(_clzsi2.o)
                              d:/devkitpror43/devkitarm/bin/../lib/gcc/arm-none-eabi/5.3.0\libgcc.a(_clzdi2.o) (__clzsi2)

Allocating common symbols
Common symbol       size              file

Wifi_Data_Struct    0x9f44            wifi_arm9.o
dnsrecord_return    0x524             sgIP_DNS.o
tcprecords          0x4               sgIP_TCP.o
ProtocolInterfaces  0x8               sgIP_Hub.o
currentCopy         0x5c              console.o
udpport_counter     0x4               sgIP_UDP.o
count_100ms         0x4               sgIP.o
lasttime            0x4               sgIP_TCP.o
dhcp_rcvd_dns       0xc               sgIP_DHCP.o
bgState             0x140             background.o
time_count          0x4               sgIP_DNS.o
port_counter        0x4               sgIP_TCP.o
dhcp_rcvd_snmask    0x4               sgIP_DHCP.o
NumHWInterfaces     0x4               sgIP_Hub.o
dhcp_state          0x4               sgIP_DHCP.o
alias_list          0x14              sgIP_DNS.o
dhcp_p              0x4               sgIP_DHCP.o
dhcp_optionptr      0x4               sgIP_DHCP.o
socketlist          0x100             sgIP_sockets.o
bgIsTextLut         0x8               background.o
querydata           0x200             sgIP_DNS.o
responsedata        0x200             sgIP_DNS.o
nifi_keys_sync      0x4               dswnifi_lib.o
dhcp_int            0x4               sgIP_DHCP.o
lastopen            0x4               fatfile.o
dnsrecords          0x5240            sgIP_DNS.o
dhcp_rcvd_ip        0x4               sgIP_DHCP.o
FrameRecvBlock      0x8               dswnifi_lib.o
dhcp_hostname       0x40              sgIP_DHCP.o
dhcp_serverip       0x4               sgIP_DHCP.o
HWInterfaces        0x30              sgIP_Hub.o
dswifiSrv           0x10              dswnifi_lib.o
ipaddr_ip           0x4               sgIP_DNS.o
client_http_handler_context
                    0x78              dswnifi_lib.o
FrameSenderBlock    0x8               dswnifi_lib.o
count_1000ms        0x4               sgIP.o
dhcp_tid            0x4               sgIP_DHCP.o
sgIP_timems         0x4               sgIP.o
lastopenlocked      0x4               fatfile.o
ArpRecords          0x400             sgIP_ARP.o
query_time_start    0x4               sgIP_DNS.o
synchandler         0x4               wifi_arm9.o
dhcp_requestDNS     0x4               sgIP_DHCP.o
data                0x200             dswnifi_lib.o
dhcp_socket         0x4               sgIP_DHCP.o
udprecords          0x4               sgIP_UDP.o
wifi_connect_point  0x58              wifi_arm9.o
numsynlist          0x4               sgIP_TCP.o
addr_list           0x14              sgIP_DNS.o
partitionlocked     0x4               fatfile.o
synlist             0x800             sgIP_TCP.o
ipaddr_alias        0x100             sgIP_DNS.o
dhcp_timestart      0x4               sgIP_DHCP.o
dhcp_status         0x4               sgIP_DHCP.o
dns_sock            0x4               sgIP_DNS.o
last_id             0x4               sgIP_DNS.o
sgIP_errno          0x4               sgIP.o
dnsrecord_hostent   0x14              sgIP_DNS.o
packethandler       0x4               wifi_arm9.o
sectortabel         0x4               fatfile.o
dhcp_rcvd_gateway   0x4               sgIP_DHCP.o
NumProtocolInterfaces
                    0x4               sgIP_Hub.o
idnum_count         0x4               sgIP_IP.o
dhcp_timelastaction
                    0x4               sgIP_DHCP.o
readSectorslocked   0x4               fatfile.o

Discarded input sections

 .text          0x00000000        0x0 d:/devkitpror43/devkitarm/bin/../lib/gcc/arm-none-eabi/5.3.0/../../../../arm-none-eabi/lib/ds_arm9_crt0.o
 .data          0x00000000        0x0 d:/devkitpror43/devkitarm/bin/../lib/gcc/arm-none-eabi/5.3.0/../../../../arm-none-eabi/lib/ds_arm9_crt0.o
 .bss           0x00000000        0x0 d:/devkitpror43/devkitarm/bin/../lib/gcc/arm-none-eabi/5.3.0/../../../../arm-none-eabi/lib/ds_arm9_crt0.o
 .text          0x00000000        0x0 d:/devkitpror43/devkitarm/bin/../lib/gcc/arm-none-eabi/5.3.0/crti.o
 .data          0x00000000        0x0 d:/devkitpror43/devkitarm/bin/../lib/gcc/arm-none-eabi/5.3.0/crti.o
 .bss           0x00000000        0x0 d:/devkitpror43/devkitarm/bin/../lib/gcc/arm-none-eabi/5.3.0/crti.o
 .data          0x00000000        0x4 d:/devkitpror43/devkitarm/bin/../lib/gcc/arm-none-eabi/5.3.0/crtbegin.o
 .text          0x00000000        0x0 default_font.bin.o
 .data          0x00000000        0x0 default_font.bin.o
 .bss           0x00000000        0x0 default_font.bin.o
 .text          0x00000000        0x0 Globals.o
 .data          0x00000000        0x0 Globals.o
 .data          0x00000000        0x0 RTC.o
 .data          0x00000000        0x0 Sound.arm.o
 .bss           0x00000000        0x8 Sound.arm.o
 .data          0x00000000        0x0 Sram.o
 .bss           0x00000000        0x0 Sram.o
 .data          0x00000000        0x0 Util.o
 .data          0x00000000        0x0 agbprint.o
 .text          0x00000000      0xfac armdis.o
 .data          0x00000000      0x104 armdis.o
 .bss           0x00000000        0x0 armdis.o
 .rodata        0x00000000      0x4e8 armdis.o
 .rodata.str1.1
                0x00000000      0x71a armdis.o
 .comment       0x00000000       0x23 armdis.o
 .ARM.attributes
                0x00000000       0x30 armdis.o
 .bss           0x00000000        0x0 bios.o
 .data          0x00000000        0x0 cheatsys_extractor.o
 .data          0x00000000        0x0 cpumg.o
 .text          0x00000000        0x0 main.o
 .data          0x00000000       0x3c main.o
 .dtcm          0x00000000        0x4 main.o
 .bss           0x00000000        0x0 mydebuger.o
 .text          0x00000000        0x0 fatfileextract.o
 .data          0x00000000        0x0 fatfileextract.o
 .bss           0x00000000        0x0 fatfileextract.o
 .text          0x00000000        0x0 file_browse.o
 .data          0x00000000        0x0 file_browse.o
 .bss           0x00000000        0x0 file_browse.o
 .comment       0x00000000       0x23 file_browse.o
 .ARM.attributes
                0x00000000       0x30 file_browse.o
 .data          0x00000000        0x0 anothercpu.arm.o
 .bss           0x00000000        0x0 anothercpu.arm.o
 .text          0x00000000        0x0 dswnifi.o
 .data          0x00000000        0x0 dswnifi.o
 .bss           0x00000000        0x0 dswnifi.o
 .data          0x00000000        0x0 gba_ipc.o
 .bss           0x00000000        0x0 gba_ipc.o
 .data          0x00000000        0x0 wifi_shared.o
 .bss           0x00000000        0x0 wifi_shared.o
 .data          0x00000000        0x0 sgIP.o
 .bss           0x00000000        0x0 sgIP.o
 .data          0x00000000        0x0 sgIP_ARP.o
 .bss           0x00000000        0x0 sgIP_ARP.o
 .data          0x00000000        0x0 sgIP_DHCP.o
 .bss           0x00000000        0x0 sgIP_DHCP.o
 .data          0x00000000        0x0 sgIP_DNS.o
 .bss           0x00000000        0x0 sgIP_DNS.o
 .data          0x00000000        0x0 sgIP_Hub.o
 .bss           0x00000000        0x0 sgIP_Hub.o
 .data          0x00000000        0x0 sgIP_ICMP.o
 .bss           0x00000000        0x0 sgIP_ICMP.o
 .data          0x00000000        0x0 sgIP_IP.o
 .bss           0x00000000        0x0 sgIP_IP.o
 .data          0x00000000        0x0 sgIP_TCP.o
 .bss           0x00000000        0x0 sgIP_TCP.o
 .data          0x00000000        0x0 sgIP_UDP.o
 .bss           0x00000000        0x0 sgIP_UDP.o
 .data          0x00000000        0x0 sgIP_memblock.o
 .bss           0x00000000        0x0 sgIP_memblock.o
 .data          0x00000000        0x0 sgIP_sockets.o
 .bss           0x00000000        0x0 sgIP_sockets.o
 .data          0x00000000       0x1c wifi_arm9.o
 .rodata.str1.1
                0x00000000       0xad wifi_arm9.o
 .data          0x00000000        0x0 cache.o
 .data          0x00000000        0x0 directory.o
 .bss           0x00000000        0x0 directory.o
 .text          0x00000000        0x0 disc.o
 .data          0x00000000        0x0 disc.o
 .bss           0x00000000        0x0 disc.o
 .data          0x00000000        0x4 dldi.o
 .bss           0x00000000        0x0 dldi.o
 .rodata        0x00000000        0xc dldi.o
 .data          0x00000000        0x0 fatdir.o
 .bss           0x00000000        0x0 fatdir.o
 .data          0x00000000        0x0 fatfile.o
 .data          0x00000000        0x0 file_allocation_table.o
 .bss           0x00000000        0x0 file_allocation_table.o
 .data          0x00000000        0x0 filetime.o
 .bss           0x00000000        0x0 filetime.o
 .data          0x00000000        0x0 libfat.o
 .bss           0x00000000        0x0 libfat.o
 .data          0x00000000        0x0 lock.o
 .bss           0x00000000        0x0 lock.o
 .data          0x00000000        0x0 partition.o
 .bss           0x00000000        0x0 partition.o
 .text          0x00000000       0x44 touch_ipc.o
 .data          0x00000000        0x0 touch_ipc.o
 .bss           0x00000000        0x0 touch_ipc.o
 .comment       0x00000000       0x23 touch_ipc.o
 .ARM.attributes
                0x00000000       0x30 touch_ipc.o
 .bss           0x00000000        0x0 background.o
 .bss           0x00000000        0x0 console.o
 .data          0x00000000        0x0 devkitpatcher.o
 .bss           0x00000000        0x0 devkitpatcher.o
 .data          0x00000000        0x0 interrupts.o
 .bss           0x00000000        0x4 interrupts.o
 .data          0x00000000        0x0 libnds_exit.o
 .bss           0x00000000        0x0 libnds_exit.o
 .data          0x00000000        0x0 sassert.o
 .bss           0x00000000        0x0 sassert.o
 .data          0x00000000        0x0 trig.o
 .bss           0x00000000        0x0 trig.o
 .data          0x00000000        0x0 video.o
 .bss           0x00000000        0x0 video.o
 .text          0x00000000        0x0 fifo_handler.o
 .data          0x00000000        0x0 fifo_handler.o
 .bss           0x00000000        0x0 fifo_handler.o
 .data          0x00000000        0x0 spinlock.o
 .bss           0x00000000        0x0 spinlock.o
 .text          0x00000000        0x0 cpu_s.o
 .data          0x00000000        0x0 cpu_s.o
 .bss           0x00000000        0x0 cpu_s.o
 .data          0x00000000        0x0 dcache.o
 .bss           0x00000000        0x0 dcache.o
 .text          0x00000000        0x0 ex_s.o
 .data          0x00000000        0x0 ex_s.o
 .bss           0x00000000        0x0 ex_s.o
 .itcm          0x00000000        0x0 ex_s.o
 .data          0x00000000        0x0 icache.o
 .bss           0x00000000        0x0 icache.o
 .text          0x00000000        0x0 interruptDispatcher.o
 .data          0x00000000        0x0 interruptDispatcher.o
 .bss           0x00000000        0x0 interruptDispatcher.o
 .data          0x00000000        0x0 mpu_setup.o
 .bss           0x00000000        0x0 mpu_setup.o
 .data          0x00000000        0x0 dldi_stub.o
 .bss           0x00000000        0x0 dldi_stub.o
 .data          0x00000000        0x0 d:/devkitPror43/libnds/lib\libnds9.a(biosCalls.o)
 .bss           0x00000000        0x0 d:/devkitPror43/libnds/lib\libnds9.a(biosCalls.o)
 .text          0x00000000        0x0 d:/devkitpror43/devkitarm/bin/../lib/gcc/arm-none-eabi/5.3.0/../../../../arm-none-eabi/lib\libm.a(lib_a-w_pow.o)
 .data          0x00000000        0x0 d:/devkitpror43/devkitarm/bin/../lib/gcc/arm-none-eabi/5.3.0/../../../../arm-none-eabi/lib\libm.a(lib_a-w_pow.o)
 .bss           0x00000000        0x0 d:/devkitpror43/devkitarm/bin/../lib/gcc/arm-none-eabi/5.3.0/../../../../arm-none-eabi/lib\libm.a(lib_a-w_pow.o)
 .text          0x00000000        0x0 d:/devkitpror43/devkitarm/bin/../lib/gcc/arm-none-eabi/5.3.0/../../../../arm-none-eabi/lib\libm.a(lib_a-w_sqrt.o)
 .data          0x00000000        0x0 d:/devkitpror43/devkitarm/bin/../lib/gcc/arm-none-eabi/5.3.0/../../../../arm-none-eabi/lib\libm.a(lib_a-w_sqrt.o)
 .bss           0x00000000        0x0 d:/devkitpror43/devkitarm/bin/../lib/gcc/arm-none-eabi/5.3.0/../../../../arm-none-eabi/lib\libm.a(lib_a-w_sqrt.o)
 .text          0x00000000        0x0 d:/devkitpror43/devkitarm/bin/../lib/gcc/arm-none-eabi/5.3.0/../../../../arm-none-eabi/lib\libm.a(lib_a-e_pow.o)
 .data          0x00000000        0x0 d:/devkitpror43/devkitarm/bin/../lib/gcc/arm-none-eabi/5.3.0/../../../../arm-none-eabi/lib\libm.a(lib_a-e_pow.o)
 .bss           0x00000000        0x0 d:/devkitpror43/devkitarm/bin/../lib/gcc/arm-none-eabi/5.3.0/../../../../arm-none-eabi/lib\libm.a(lib_a-e_pow.o)
 .text          0x00000000        0x0 d:/devkitpror43/devkitarm/bin/../lib/gcc/arm-none-eabi/5.3.0/../../../../arm-none-eabi/lib\libm.a(lib_a-e_sqrt.o)
 .data          0x00000000        0x0 d:/devkitpror43/devkitarm/bin/../lib/gcc/arm-none-eabi/5.3.0/../../../../arm-none-eabi/lib\libm.a(lib_a-e_sqrt.o)
 .bss           0x00000000        0x0 d:/devkitpror43/devkitarm/bin/../lib/gcc/arm-none-eabi/5.3.0/../../../../arm-none-eabi/lib\libm.a(lib_a-e_sqrt.o)
 .text          0x00000000        0x0 d:/devkitpror43/devkitarm/bin/../lib/gcc/arm-none-eabi/5.3.0/../../../../arm-none-eabi/lib\libm.a(lib_a-s_fabs.o)
 .data          0x00000000        0x0 d:/devkitpror43/devkitarm/bin/../lib/gcc/arm-none-eabi/5.3.0/../../../../arm-none-eabi/lib\libm.a(lib_a-s_fabs.o)
 .bss           0x00000000        0x0 d:/devkitpror43/devkitarm/bin/../lib/gcc/arm-none-eabi/5.3.0/../../../../arm-none-eabi/lib\libm.a(lib_a-s_fabs.o)
 .text          0x00000000        0x0 d:/devkitpror43/devkitarm/bin/../lib/gcc/arm-none-eabi/5.3.0/../../../../arm-none-eabi/lib\libm.a(lib_a-s_finite.o)
 .data          0x00000000        0x0 d:/devkitpror43/devkitarm/bin/../lib/gcc/arm-none-eabi/5.3.0/../../../../arm-none-eabi/lib\libm.a(lib_a-s_finite.o)
 .bss           0x00000000        0x0 d:/devkitpror43/devkitarm/bin/../lib/gcc/arm-none-eabi/5.3.0/../../../../arm-none-eabi/lib\libm.a(lib_a-s_finite.o)
 .text          0x00000000        0x0 d:/devkitpror43/devkitarm/bin/../lib/gcc/arm-none-eabi/5.3.0/../../../../arm-none-eabi/lib\libm.a(lib_a-s_fpclassify.o)
 .data          0x00000000        0x0 d:/devkitpror43/devkitarm/bin/../lib/gcc/arm-none-eabi/5.3.0/../../../../arm-none-eabi/lib\libm.a(lib_a-s_fpclassify.o)
 .bss           0x00000000        0x0 d:/devkitpror43/devkitarm/bin/../lib/gcc/arm-none-eabi/5.3.0/../../../../arm-none-eabi/lib\libm.a(lib_a-s_fpclassify.o)
 .text          0x00000000        0x0 d:/devkitpror43/devkitarm/bin/../lib/gcc/arm-none-eabi/5.3.0/../../../../arm-none-eabi/lib\libm.a(lib_a-s_lib_ver.o)
 .data          0x00000000        0x0 d:/devkitpror43/devkitarm/bin/../lib/gcc/arm-none-eabi/5.3.0/../../../../arm-none-eabi/lib\libm.a(lib_a-s_lib_ver.o)
 .bss           0x00000000        0x0 d:/devkitpror43/devkitarm/bin/../lib/gcc/arm-none-eabi/5.3.0/../../../../arm-none-eabi/lib\libm.a(lib_a-s_lib_ver.o)
 .text          0x00000000        0x0 d:/devkitpror43/devkitarm/bin/../lib/gcc/arm-none-eabi/5.3.0/../../../../arm-none-eabi/lib\libm.a(lib_a-s_matherr.o)
 .data          0x00000000        0x0 d:/devkitpror43/devkitarm/bin/../lib/gcc/arm-none-eabi/5.3.0/../../../../arm-none-eabi/lib\libm.a(lib_a-s_matherr.o)
 .bss           0x00000000        0x0 d:/devkitpror43/devkitarm/bin/../lib/gcc/arm-none-eabi/5.3.0/../../../../arm-none-eabi/lib\libm.a(lib_a-s_matherr.o)
 .text          0x00000000        0x0 d:/devkitpror43/devkitarm/bin/../lib/gcc/arm-none-eabi/5.3.0/../../../../arm-none-eabi/lib\libm.a(lib_a-s_nan.o)
 .data          0x00000000        0x0 d:/devkitpror43/devkitarm/bin/../lib/gcc/arm-none-eabi/5.3.0/../../../../arm-none-eabi/lib\libm.a(lib_a-s_nan.o)
 .bss           0x00000000        0x0 d:/devkitpror43/devkitarm/bin/../lib/gcc/arm-none-eabi/5.3.0/../../../../arm-none-eabi/lib\libm.a(lib_a-s_nan.o)
 .text          0x00000000        0x0 d:/devkitpror43/devkitarm/bin/../lib/gcc/arm-none-eabi/5.3.0/../../../../arm-none-eabi/lib\libm.a(lib_a-s_rint.o)
 .data          0x00000000        0x0 d:/devkitpror43/devkitarm/bin/../lib/gcc/arm-none-eabi/5.3.0/../../../../arm-none-eabi/lib\libm.a(lib_a-s_rint.o)
 .bss           0x00000000        0x0 d:/devkitpror43/devkitarm/bin/../lib/gcc/arm-none-eabi/5.3.0/../../../../arm-none-eabi/lib\libm.a(lib_a-s_rint.o)
 .text          0x00000000        0x0 d:/devkitpror43/devkitarm/bin/../lib/gcc/arm-none-eabi/5.3.0/../../../../arm-none-eabi/lib\libm.a(lib_a-s_scalbn.o)
 .data          0x00000000        0x0 d:/devkitpror43/devkitarm/bin/../lib/gcc/arm-none-eabi/5.3.0/../../../../arm-none-eabi/lib\libm.a(lib_a-s_scalbn.o)
 .bss           0x00000000        0x0 d:/devkitpror43/devkitarm/bin/../lib/gcc/arm-none-eabi/5.3.0/../../../../arm-none-eabi/lib\libm.a(lib_a-s_scalbn.o)
 .text          0x00000000        0x0 d:/devkitpror43/devkitarm/bin/../lib/gcc/arm-none-eabi/5.3.0/../../../../arm-none-eabi/lib\libm.a(lib_a-s_copysign.o)
 .data          0x00000000        0x0 d:/devkitpror43/devkitarm/bin/../lib/gcc/arm-none-eabi/5.3.0/../../../../arm-none-eabi/lib\libm.a(lib_a-s_copysign.o)
 .bss           0x00000000        0x0 d:/devkitpror43/devkitarm/bin/../lib/gcc/arm-none-eabi/5.3.0/../../../../arm-none-eabi/lib\libm.a(lib_a-s_copysign.o)
 .data          0x00000000        0x0 d:/devkitpror43/devkitarm/bin/../lib/gcc/arm-none-eabi/5.3.0\libgcc.a(_udivsi3.o)
 .bss           0x00000000        0x0 d:/devkitpror43/devkitarm/bin/../lib/gcc/arm-none-eabi/5.3.0\libgcc.a(_udivsi3.o)
 .data          0x00000000        0x0 d:/devkitpror43/devkitarm/bin/../lib/gcc/arm-none-eabi/5.3.0\libgcc.a(_divsi3.o)
 .bss           0x00000000        0x0 d:/devkitpror43/devkitarm/bin/../lib/gcc/arm-none-eabi/5.3.0\libgcc.a(_divsi3.o)
 .data          0x00000000        0x0 d:/devkitpror43/devkitarm/bin/../lib/gcc/arm-none-eabi/5.3.0\libgcc.a(_dvmd_tls.o)
 .bss           0x00000000        0x0 d:/devkitpror43/devkitarm/bin/../lib/gcc/arm-none-eabi/5.3.0\libgcc.a(_dvmd_tls.o)
 .data          0x00000000        0x0 d:/devkitpror43/devkitarm/bin/../lib/gcc/arm-none-eabi/5.3.0\libgcc.a(_arm_addsubdf3.o)
 .bss           0x00000000        0x0 d:/devkitpror43/devkitarm/bin/../lib/gcc/arm-none-eabi/5.3.0\libgcc.a(_arm_addsubdf3.o)
 .data          0x00000000        0x0 d:/devkitpror43/devkitarm/bin/../lib/gcc/arm-none-eabi/5.3.0\libgcc.a(_arm_muldivdf3.o)
 .bss           0x00000000        0x0 d:/devkitpror43/devkitarm/bin/../lib/gcc/arm-none-eabi/5.3.0\libgcc.a(_arm_muldivdf3.o)
 .data          0x00000000        0x0 d:/devkitpror43/devkitarm/bin/../lib/gcc/arm-none-eabi/5.3.0\libgcc.a(_arm_cmpdf2.o)
 .bss           0x00000000        0x0 d:/devkitpror43/devkitarm/bin/../lib/gcc/arm-none-eabi/5.3.0\libgcc.a(_arm_cmpdf2.o)
 .data          0x00000000        0x0 d:/devkitpror43/devkitarm/bin/../lib/gcc/arm-none-eabi/5.3.0\libgcc.a(_arm_fixdfsi.o)
 .bss           0x00000000        0x0 d:/devkitpror43/devkitarm/bin/../lib/gcc/arm-none-eabi/5.3.0\libgcc.a(_arm_fixdfsi.o)
 .data          0x00000000        0x0 d:/devkitpror43/devkitarm/bin/../lib/gcc/arm-none-eabi/5.3.0\libgcc.a(_arm_fixunsdfsi.o)
 .bss           0x00000000        0x0 d:/devkitpror43/devkitarm/bin/../lib/gcc/arm-none-eabi/5.3.0\libgcc.a(_arm_fixunsdfsi.o)
 .text          0x00000000        0x0 d:/devkitpror43/devkitarm/bin/../lib/gcc/arm-none-eabi/5.3.0/../../../../arm-none-eabi/lib\libc.a(lib_a-assert.o)
 .data          0x00000000        0x0 d:/devkitpror43/devkitarm/bin/../lib/gcc/arm-none-eabi/5.3.0/../../../../arm-none-eabi/lib\libc.a(lib_a-assert.o)
 .bss           0x00000000        0x0 d:/devkitpror43/devkitarm/bin/../lib/gcc/arm-none-eabi/5.3.0/../../../../arm-none-eabi/lib\libc.a(lib_a-assert.o)
 .text.__assert
                0x00000000       0x10 d:/devkitpror43/devkitarm/bin/../lib/gcc/arm-none-eabi/5.3.0/../../../../arm-none-eabi/lib\libc.a(lib_a-assert.o)
 .text          0x00000000        0x0 d:/devkitpror43/devkitarm/bin/../lib/gcc/arm-none-eabi/5.3.0/../../../../arm-none-eabi/lib\libc.a(lib_a-calloc.o)
 .data          0x00000000        0x0 d:/devkitpror43/devkitarm/bin/../lib/gcc/arm-none-eabi/5.3.0/../../../../arm-none-eabi/lib\libc.a(lib_a-calloc.o)
 .bss           0x00000000        0x0 d:/devkitpror43/devkitarm/bin/../lib/gcc/arm-none-eabi/5.3.0/../../../../arm-none-eabi/lib\libc.a(lib_a-calloc.o)
 .text          0x00000000        0x0 d:/devkitpror43/devkitarm/bin/../lib/gcc/arm-none-eabi/5.3.0/../../../../arm-none-eabi/lib\libc.a(lib_a-callocr.o)
 .data          0x00000000        0x0 d:/devkitpror43/devkitarm/bin/../lib/gcc/arm-none-eabi/5.3.0/../../../../arm-none-eabi/lib\libc.a(lib_a-callocr.o)
 .bss           0x00000000        0x0 d:/devkitpror43/devkitarm/bin/../lib/gcc/arm-none-eabi/5.3.0/../../../../arm-none-eabi/lib\libc.a(lib_a-callocr.o)
 .text          0x00000000        0x0 d:/devkitpror43/devkitarm/bin/../lib/gcc/arm-none-eabi/5.3.0/../../../../arm-none-eabi/lib\libc.a(lib_a-ctype_.o)
 .data          0x00000000        0x0 d:/devkitpror43/devkitarm/bin/../lib/gcc/arm-none-eabi/5.3.0/../../../../arm-none-eabi/lib\libc.a(lib_a-ctype_.o)
 .bss           0x00000000        0x0 d:/devkitpror43/devkitarm/bin/../lib/gcc/arm-none-eabi/5.3.0/../../../../arm-none-eabi/lib\libc.a(lib_a-ctype_.o)
 .text.__set_ctype
                0x00000000       0x18 d:/devkitpror43/devkitarm/bin/../lib/gcc/arm-none-eabi/5.3.0/../../../../arm-none-eabi/lib\libc.a(lib_a-ctype_.o)
 .text          0x00000000        0x0 d:/devkitpror43/devkitarm/bin/../lib/gcc/arm-none-eabi/5.3.0/../../../../arm-none-eabi/lib\libc.a(lib_a-errno.o)
 .data          0x00000000        0x0 d:/devkitpror43/devkitarm/bin/../lib/gcc/arm-none-eabi/5.3.0/../../../../arm-none-eabi/lib\libc.a(lib_a-errno.o)
 .bss           0x00000000        0x0 d:/devkitpror43/devkitarm/bin/../lib/gcc/arm-none-eabi/5.3.0/../../../../arm-none-eabi/lib\libc.a(lib_a-errno.o)
 .text          0x00000000        0x0 d:/devkitpror43/devkitarm/bin/../lib/gcc/arm-none-eabi/5.3.0/../../../../arm-none-eabi/lib\libc.a(lib_a-fclose.o)
 .data          0x00000000        0x0 d:/devkitpror43/devkitarm/bin/../lib/gcc/arm-none-eabi/5.3.0/../../../../arm-none-eabi/lib\libc.a(lib_a-fclose.o)
 .bss           0x00000000        0x0 d:/devkitpror43/devkitarm/bin/../lib/gcc/arm-none-eabi/5.3.0/../../../../arm-none-eabi/lib\libc.a(lib_a-fclose.o)
 .text          0x00000000        0x0 d:/devkitpror43/devkitarm/bin/../lib/gcc/arm-none-eabi/5.3.0/../../../../arm-none-eabi/lib\libc.a(lib_a-fflush.o)
 .data          0x00000000        0x0 d:/devkitpror43/devkitarm/bin/../lib/gcc/arm-none-eabi/5.3.0/../../../../arm-none-eabi/lib\libc.a(lib_a-fflush.o)
 .bss           0x00000000        0x0 d:/devkitpror43/devkitarm/bin/../lib/gcc/arm-none-eabi/5.3.0/../../../../arm-none-eabi/lib\libc.a(lib_a-fflush.o)
 .text          0x00000000        0x0 d:/devkitpror43/devkitarm/bin/../lib/gcc/arm-none-eabi/5.3.0/../../../../arm-none-eabi/lib\libc.a(lib_a-findfp.o)
 .data          0x00000000        0x0 d:/devkitpror43/devkitarm/bin/../lib/gcc/arm-none-eabi/5.3.0/../../../../arm-none-eabi/lib\libc.a(lib_a-findfp.o)
 .bss           0x00000000        0x0 d:/devkitpror43/devkitarm/bin/../lib/gcc/arm-none-eabi/5.3.0/../../../../arm-none-eabi/lib\libc.a(lib_a-findfp.o)
 .text.__fp_lock
                0x00000000       0x28 d:/devkitpror43/devkitarm/bin/../lib/gcc/arm-none-eabi/5.3.0/../../../../arm-none-eabi/lib\libc.a(lib_a-findfp.o)
 .text.__fp_unlock
                0x00000000       0x28 d:/devkitpror43/devkitarm/bin/../lib/gcc/arm-none-eabi/5.3.0/../../../../arm-none-eabi/lib\libc.a(lib_a-findfp.o)
 .text._cleanup
                0x00000000       0x24 d:/devkitpror43/devkitarm/bin/../lib/gcc/arm-none-eabi/5.3.0/../../../../arm-none-eabi/lib\libc.a(lib_a-findfp.o)
 .text.__sinit_lock_acquire
                0x00000000       0x18 d:/devkitpror43/devkitarm/bin/../lib/gcc/arm-none-eabi/5.3.0/../../../../arm-none-eabi/lib\libc.a(lib_a-findfp.o)
 .text.__sinit_lock_release
                0x00000000       0x18 d:/devkitpror43/devkitarm/bin/../lib/gcc/arm-none-eabi/5.3.0/../../../../arm-none-eabi/lib\libc.a(lib_a-findfp.o)
 .text.__fp_lock_all
                0x00000000       0x28 d:/devkitpror43/devkitarm/bin/../lib/gcc/arm-none-eabi/5.3.0/../../../../arm-none-eabi/lib\libc.a(lib_a-findfp.o)
 .text.__fp_unlock_all
                0x00000000       0x28 d:/devkitpror43/devkitarm/bin/../lib/gcc/arm-none-eabi/5.3.0/../../../../arm-none-eabi/lib\libc.a(lib_a-findfp.o)
 .text          0x00000000        0x0 d:/devkitpror43/devkitarm/bin/../lib/gcc/arm-none-eabi/5.3.0/../../../../arm-none-eabi/lib\libc.a(lib_a-fiprintf.o)
 .data          0x00000000        0x0 d:/devkitpror43/devkitarm/bin/../lib/gcc/arm-none-eabi/5.3.0/../../../../arm-none-eabi/lib\libc.a(lib_a-fiprintf.o)
 .bss           0x00000000        0x0 d:/devkitpror43/devkitarm/bin/../lib/gcc/arm-none-eabi/5.3.0/../../../../arm-none-eabi/lib\libc.a(lib_a-fiprintf.o)
 .text._fiprintf_r
                0x00000000       0x30 d:/devkitpror43/devkitarm/bin/../lib/gcc/arm-none-eabi/5.3.0/../../../../arm-none-eabi/lib\libc.a(lib_a-fiprintf.o)
 .text          0x00000000        0x0 d:/devkitpror43/devkitarm/bin/../lib/gcc/arm-none-eabi/5.3.0/../../../../arm-none-eabi/lib\libc.a(lib_a-fopen.o)
 .data          0x00000000        0x0 d:/devkitpror43/devkitarm/bin/../lib/gcc/arm-none-eabi/5.3.0/../../../../arm-none-eabi/lib\libc.a(lib_a-fopen.o)
 .bss           0x00000000        0x0 d:/devkitpror43/devkitarm/bin/../lib/gcc/arm-none-eabi/5.3.0/../../../../arm-none-eabi/lib\libc.a(lib_a-fopen.o)
 .text          0x00000000        0x0 d:/devkitpror43/devkitarm/bin/../lib/gcc/arm-none-eabi/5.3.0/../../../../arm-none-eabi/lib\libc.a(lib_a-fputs.o)
 .data          0x00000000        0x0 d:/devkitpror43/devkitarm/bin/../lib/gcc/arm-none-eabi/5.3.0/../../../../arm-none-eabi/lib\libc.a(lib_a-fputs.o)
 .bss           0x00000000        0x0 d:/devkitpror43/devkitarm/bin/../lib/gcc/arm-none-eabi/5.3.0/../../../../arm-none-eabi/lib\libc.a(lib_a-fputs.o)
 .text          0x00000000        0x0 d:/devkitpror43/devkitarm/bin/../lib/gcc/arm-none-eabi/5.3.0/../../../../arm-none-eabi/lib\libc.a(lib_a-fread.o)
 .data          0x00000000        0x0 d:/devkitpror43/devkitarm/bin/../lib/gcc/arm-none-eabi/5.3.0/../../../../arm-none-eabi/lib\libc.a(lib_a-fread.o)
 .bss           0x00000000        0x0 d:/devkitpror43/devkitarm/bin/../lib/gcc/arm-none-eabi/5.3.0/../../../../arm-none-eabi/lib\libc.a(lib_a-fread.o)
 .text          0x00000000        0x0 d:/devkitpror43/devkitarm/bin/../lib/gcc/arm-none-eabi/5.3.0/../../../../arm-none-eabi/lib\libc.a(lib_a-freer.o)
 .data          0x00000000        0x0 d:/devkitpror43/devkitarm/bin/../lib/gcc/arm-none-eabi/5.3.0/../../../../arm-none-eabi/lib\libc.a(lib_a-freer.o)
 .bss           0x00000000        0x0 d:/devkitpror43/devkitarm/bin/../lib/gcc/arm-none-eabi/5.3.0/../../../../arm-none-eabi/lib\libc.a(lib_a-freer.o)
 .text          0x00000000        0x0 d:/devkitpror43/devkitarm/bin/../lib/gcc/arm-none-eabi/5.3.0/../../../../arm-none-eabi/lib\libc.a(lib_a-fseek.o)
 .data          0x00000000        0x0 d:/devkitpror43/devkitarm/bin/../lib/gcc/arm-none-eabi/5.3.0/../../../../arm-none-eabi/lib\libc.a(lib_a-fseek.o)
 .bss           0x00000000        0x0 d:/devkitpror43/devkitarm/bin/../lib/gcc/arm-none-eabi/5.3.0/../../../../arm-none-eabi/lib\libc.a(lib_a-fseek.o)
 .text          0x00000000        0x0 d:/devkitpror43/devkitarm/bin/../lib/gcc/arm-none-eabi/5.3.0/../../../../arm-none-eabi/lib\libc.a(lib_a-fseeko.o)
 .data          0x00000000        0x0 d:/devkitpror43/devkitarm/bin/../lib/gcc/arm-none-eabi/5.3.0/../../../../arm-none-eabi/lib\libc.a(lib_a-fseeko.o)
 .bss           0x00000000        0x0 d:/devkitpror43/devkitarm/bin/../lib/gcc/arm-none-eabi/5.3.0/../../../../arm-none-eabi/lib\libc.a(lib_a-fseeko.o)
 .text.fseeko   0x00000000       0x28 d:/devkitpror43/devkitarm/bin/../lib/gcc/arm-none-eabi/5.3.0/../../../../arm-none-eabi/lib\libc.a(lib_a-fseeko.o)
 .text          0x00000000        0x0 d:/devkitpror43/devkitarm/bin/../lib/gcc/arm-none-eabi/5.3.0/../../../../arm-none-eabi/lib\libc.a(lib_a-ftell.o)
 .data          0x00000000        0x0 d:/devkitpror43/devkitarm/bin/../lib/gcc/arm-none-eabi/5.3.0/../../../../arm-none-eabi/lib\libc.a(lib_a-ftell.o)
 .bss           0x00000000        0x0 d:/devkitpror43/devkitarm/bin/../lib/gcc/arm-none-eabi/5.3.0/../../../../arm-none-eabi/lib\libc.a(lib_a-ftell.o)
 .text._ftell_r
                0x00000000       0x10 d:/devkitpror43/devkitarm/bin/../lib/gcc/arm-none-eabi/5.3.0/../../../../arm-none-eabi/lib\libc.a(lib_a-ftell.o)
 .text          0x00000000        0x0 d:/devkitpror43/devkitarm/bin/../lib/gcc/arm-none-eabi/5.3.0/../../../../arm-none-eabi/lib\libc.a(lib_a-ftello.o)
 .data          0x00000000        0x0 d:/devkitpror43/devkitarm/bin/../lib/gcc/arm-none-eabi/5.3.0/../../../../arm-none-eabi/lib\libc.a(lib_a-ftello.o)
 .bss           0x00000000        0x0 d:/devkitpror43/devkitarm/bin/../lib/gcc/arm-none-eabi/5.3.0/../../../../arm-none-eabi/lib\libc.a(lib_a-ftello.o)
 .text.ftello   0x00000000       0x18 d:/devkitpror43/devkitarm/bin/../lib/gcc/arm-none-eabi/5.3.0/../../../../arm-none-eabi/lib\libc.a(lib_a-ftello.o)
 .text          0x00000000        0x0 d:/devkitpror43/devkitarm/bin/../lib/gcc/arm-none-eabi/5.3.0/../../../../arm-none-eabi/lib\libc.a(lib_a-fvwrite.o)
 .data          0x00000000        0x0 d:/devkitpror43/devkitarm/bin/../lib/gcc/arm-none-eabi/5.3.0/../../../../arm-none-eabi/lib\libc.a(lib_a-fvwrite.o)
 .bss           0x00000000        0x0 d:/devkitpror43/devkitarm/bin/../lib/gcc/arm-none-eabi/5.3.0/../../../../arm-none-eabi/lib\libc.a(lib_a-fvwrite.o)
 .text          0x00000000        0x0 d:/devkitpror43/devkitarm/bin/../lib/gcc/arm-none-eabi/5.3.0/../../../../arm-none-eabi/lib\libc.a(lib_a-fwalk.o)
 .data          0x00000000        0x0 d:/devkitpror43/devkitarm/bin/../lib/gcc/arm-none-eabi/5.3.0/../../../../arm-none-eabi/lib\libc.a(lib_a-fwalk.o)
 .bss           0x00000000        0x0 d:/devkitpror43/devkitarm/bin/../lib/gcc/arm-none-eabi/5.3.0/../../../../arm-none-eabi/lib\libc.a(lib_a-fwalk.o)
 .text          0x00000000        0x0 d:/devkitpror43/devkitarm/bin/../lib/gcc/arm-none-eabi/5.3.0/../../../../arm-none-eabi/lib\libc.a(lib_a-fwrite.o)
 .data          0x00000000        0x0 d:/devkitpror43/devkitarm/bin/../lib/gcc/arm-none-eabi/5.3.0/../../../../arm-none-eabi/lib\libc.a(lib_a-fwrite.o)
 .bss           0x00000000        0x0 d:/devkitpror43/devkitarm/bin/../lib/gcc/arm-none-eabi/5.3.0/../../../../arm-none-eabi/lib\libc.a(lib_a-fwrite.o)
 .text          0x00000000        0x0 d:/devkitpror43/devkitarm/bin/../lib/gcc/arm-none-eabi/5.3.0/../../../../arm-none-eabi/lib\libc.a(lib_a-impure.o)
 .data          0x00000000        0x0 d:/devkitpror43/devkitarm/bin/../lib/gcc/arm-none-eabi/5.3.0/../../../../arm-none-eabi/lib\libc.a(lib_a-impure.o)
 .bss           0x00000000        0x0 d:/devkitpror43/devkitarm/bin/../lib/gcc/arm-none-eabi/5.3.0/../../../../arm-none-eabi/lib\libc.a(lib_a-impure.o)
 .text          0x00000000        0x0 d:/devkitpror43/devkitarm/bin/../lib/gcc/arm-none-eabi/5.3.0/../../../../arm-none-eabi/lib\libc.a(lib_a-init.o)
 .data          0x00000000        0x0 d:/devkitpror43/devkitarm/bin/../lib/gcc/arm-none-eabi/5.3.0/../../../../arm-none-eabi/lib\libc.a(lib_a-init.o)
 .bss           0x00000000        0x0 d:/devkitpror43/devkitarm/bin/../lib/gcc/arm-none-eabi/5.3.0/../../../../arm-none-eabi/lib\libc.a(lib_a-init.o)
 .text          0x00000000        0x0 d:/devkitpror43/devkitarm/bin/../lib/gcc/arm-none-eabi/5.3.0/../../../../arm-none-eabi/lib\libc.a(lib_a-iprintf.o)
 .data          0x00000000        0x0 d:/devkitpror43/devkitarm/bin/../lib/gcc/arm-none-eabi/5.3.0/../../../../arm-none-eabi/lib\libc.a(lib_a-iprintf.o)
 .bss           0x00000000        0x0 d:/devkitpror43/devkitarm/bin/../lib/gcc/arm-none-eabi/5.3.0/../../../../arm-none-eabi/lib\libc.a(lib_a-iprintf.o)
 .text._iprintf_r
                0x00000000       0x34 d:/devkitpror43/devkitarm/bin/../lib/gcc/arm-none-eabi/5.3.0/../../../../arm-none-eabi/lib\libc.a(lib_a-iprintf.o)
 .text          0x00000000        0x0 d:/devkitpror43/devkitarm/bin/../lib/gcc/arm-none-eabi/5.3.0/../../../../arm-none-eabi/lib\libc.a(lib_a-lcltime_r.o)
 .data          0x00000000        0x0 d:/devkitpror43/devkitarm/bin/../lib/gcc/arm-none-eabi/5.3.0/../../../../arm-none-eabi/lib\libc.a(lib_a-lcltime_r.o)
 .bss           0x00000000        0x0 d:/devkitpror43/devkitarm/bin/../lib/gcc/arm-none-eabi/5.3.0/../../../../arm-none-eabi/lib\libc.a(lib_a-lcltime_r.o)
 .text          0x00000000        0x0 d:/devkitpror43/devkitarm/bin/../lib/gcc/arm-none-eabi/5.3.0/../../../../arm-none-eabi/lib\libc.a(lib_a-locale.o)
 .data          0x00000000        0x0 d:/devkitpror43/devkitarm/bin/../lib/gcc/arm-none-eabi/5.3.0/../../../../arm-none-eabi/lib\libc.a(lib_a-locale.o)
 .bss           0x00000000        0x0 d:/devkitpror43/devkitarm/bin/../lib/gcc/arm-none-eabi/5.3.0/../../../../arm-none-eabi/lib\libc.a(lib_a-locale.o)
 .text.__get_locale_env
                0x00000000       0x94 d:/devkitpror43/devkitarm/bin/../lib/gcc/arm-none-eabi/5.3.0/../../../../arm-none-eabi/lib\libc.a(lib_a-locale.o)
 .text.loadlocale
                0x00000000      0x8a4 d:/devkitpror43/devkitarm/bin/../lib/gcc/arm-none-eabi/5.3.0/../../../../arm-none-eabi/lib\libc.a(lib_a-locale.o)
 .text.currentlocale
                0x00000000       0x90 d:/devkitpror43/devkitarm/bin/../lib/gcc/arm-none-eabi/5.3.0/../../../../arm-none-eabi/lib\libc.a(lib_a-locale.o)
 .text._setlocale_r
                0x00000000      0x308 d:/devkitpror43/devkitarm/bin/../lib/gcc/arm-none-eabi/5.3.0/../../../../arm-none-eabi/lib\libc.a(lib_a-locale.o)
 .text.__locale_msgcharset
                0x00000000        0xc d:/devkitpror43/devkitarm/bin/../lib/gcc/arm-none-eabi/5.3.0/../../../../arm-none-eabi/lib\libc.a(lib_a-locale.o)
 .text.__locale_cjk_lang
                0x00000000       0x10 d:/devkitpror43/devkitarm/bin/../lib/gcc/arm-none-eabi/5.3.0/../../../../arm-none-eabi/lib\libc.a(lib_a-locale.o)
 .text.setlocale
                0x00000000       0x20 d:/devkitpror43/devkitarm/bin/../lib/gcc/arm-none-eabi/5.3.0/../../../../arm-none-eabi/lib\libc.a(lib_a-locale.o)
 .text.localeconv
                0x00000000       0x18 d:/devkitpror43/devkitarm/bin/../lib/gcc/arm-none-eabi/5.3.0/../../../../arm-none-eabi/lib\libc.a(lib_a-locale.o)
 .data.lc_message_charset
                0x00000000       0x20 d:/devkitpror43/devkitarm/bin/../lib/gcc/arm-none-eabi/5.3.0/../../../../arm-none-eabi/lib\libc.a(lib_a-locale.o)
 .bss._PathLocale
                0x00000000        0x4 d:/devkitpror43/devkitarm/bin/../lib/gcc/arm-none-eabi/5.3.0/../../../../arm-none-eabi/lib\libc.a(lib_a-locale.o)
 .bss.__nlocale_changed
                0x00000000        0x4 d:/devkitpror43/devkitarm/bin/../lib/gcc/arm-none-eabi/5.3.0/../../../../arm-none-eabi/lib\libc.a(lib_a-locale.o)
 .bss.__mlocale_changed
                0x00000000        0x4 d:/devkitpror43/devkitarm/bin/../lib/gcc/arm-none-eabi/5.3.0/../../../../arm-none-eabi/lib\libc.a(lib_a-locale.o)
 .bss.lc_ctype_cjk_lang
                0x00000000        0x4 d:/devkitpror43/devkitarm/bin/../lib/gcc/arm-none-eabi/5.3.0/../../../../arm-none-eabi/lib\libc.a(lib_a-locale.o)
 .data.current_categories
                0x00000000       0xe0 d:/devkitpror43/devkitarm/bin/../lib/gcc/arm-none-eabi/5.3.0/../../../../arm-none-eabi/lib\libc.a(lib_a-locale.o)
 .bss.new_categories
                0x00000000       0xe0 d:/devkitpror43/devkitarm/bin/../lib/gcc/arm-none-eabi/5.3.0/../../../../arm-none-eabi/lib\libc.a(lib_a-locale.o)
 .data.__default_locale
                0x00000000       0x20 d:/devkitpror43/devkitarm/bin/../lib/gcc/arm-none-eabi/5.3.0/../../../../arm-none-eabi/lib\libc.a(lib_a-locale.o)
 .rodata.categories
                0x00000000       0x1c d:/devkitpror43/devkitarm/bin/../lib/gcc/arm-none-eabi/5.3.0/../../../../arm-none-eabi/lib\libc.a(lib_a-locale.o)
 .bss.current_locale_string
                0x00000000       0xe8 d:/devkitpror43/devkitarm/bin/../lib/gcc/arm-none-eabi/5.3.0/../../../../arm-none-eabi/lib\libc.a(lib_a-locale.o)
 .bss.saved_categories
                0x00000000       0xe0 d:/devkitpror43/devkitarm/bin/../lib/gcc/arm-none-eabi/5.3.0/../../../../arm-none-eabi/lib\libc.a(lib_a-locale.o)
 .text          0x00000000        0x0 d:/devkitpror43/devkitarm/bin/../lib/gcc/arm-none-eabi/5.3.0/../../../../arm-none-eabi/lib\libc.a(lib_a-makebuf.o)
 .data          0x00000000        0x0 d:/devkitpror43/devkitarm/bin/../lib/gcc/arm-none-eabi/5.3.0/../../../../arm-none-eabi/lib\libc.a(lib_a-makebuf.o)
 .bss           0x00000000        0x0 d:/devkitpror43/devkitarm/bin/../lib/gcc/arm-none-eabi/5.3.0/../../../../arm-none-eabi/lib\libc.a(lib_a-makebuf.o)
 .text          0x00000000        0x0 d:/devkitpror43/devkitarm/bin/../lib/gcc/arm-none-eabi/5.3.0/../../../../arm-none-eabi/lib\libc.a(lib_a-malloc.o)
 .data          0x00000000        0x0 d:/devkitpror43/devkitarm/bin/../lib/gcc/arm-none-eabi/5.3.0/../../../../arm-none-eabi/lib\libc.a(lib_a-malloc.o)
 .bss           0x00000000        0x0 d:/devkitpror43/devkitarm/bin/../lib/gcc/arm-none-eabi/5.3.0/../../../../arm-none-eabi/lib\libc.a(lib_a-malloc.o)
 .text          0x00000000        0x0 d:/devkitpror43/devkitarm/bin/../lib/gcc/arm-none-eabi/5.3.0/../../../../arm-none-eabi/lib\libc.a(lib_a-mallocr.o)
 .data          0x00000000        0x0 d:/devkitpror43/devkitarm/bin/../lib/gcc/arm-none-eabi/5.3.0/../../../../arm-none-eabi/lib\libc.a(lib_a-mallocr.o)
 .bss           0x00000000        0x0 d:/devkitpror43/devkitarm/bin/../lib/gcc/arm-none-eabi/5.3.0/../../../../arm-none-eabi/lib\libc.a(lib_a-mallocr.o)
 .text          0x00000000        0x0 d:/devkitpror43/devkitarm/bin/../lib/gcc/arm-none-eabi/5.3.0/../../../../arm-none-eabi/lib\libc.a(lib_a-mbrtowc.o)
 .data          0x00000000        0x0 d:/devkitpror43/devkitarm/bin/../lib/gcc/arm-none-eabi/5.3.0/../../../../arm-none-eabi/lib\libc.a(lib_a-mbrtowc.o)
 .bss           0x00000000        0x0 d:/devkitpror43/devkitarm/bin/../lib/gcc/arm-none-eabi/5.3.0/../../../../arm-none-eabi/lib\libc.a(lib_a-mbrtowc.o)
 .text          0x00000000        0x0 d:/devkitpror43/devkitarm/bin/../lib/gcc/arm-none-eabi/5.3.0/../../../../arm-none-eabi/lib\libc.a(lib_a-mbsrtowcs.o)
 .data          0x00000000        0x0 d:/devkitpror43/devkitarm/bin/../lib/gcc/arm-none-eabi/5.3.0/../../../../arm-none-eabi/lib\libc.a(lib_a-mbsrtowcs.o)
 .bss           0x00000000        0x0 d:/devkitpror43/devkitarm/bin/../lib/gcc/arm-none-eabi/5.3.0/../../../../arm-none-eabi/lib\libc.a(lib_a-mbsrtowcs.o)
 .text._mbsrtowcs_r
                0x00000000       0x24 d:/devkitpror43/devkitarm/bin/../lib/gcc/arm-none-eabi/5.3.0/../../../../arm-none-eabi/lib\libc.a(lib_a-mbsrtowcs.o)
 .text          0x00000000        0x0 d:/devkitpror43/devkitarm/bin/../lib/gcc/arm-none-eabi/5.3.0/../../../../arm-none-eabi/lib\libc.a(lib_a-mbtowc_r.o)
 .data          0x00000000        0x0 d:/devkitpror43/devkitarm/bin/../lib/gcc/arm-none-eabi/5.3.0/../../../../arm-none-eabi/lib\libc.a(lib_a-mbtowc_r.o)
 .bss           0x00000000        0x0 d:/devkitpror43/devkitarm/bin/../lib/gcc/arm-none-eabi/5.3.0/../../../../arm-none-eabi/lib\libc.a(lib_a-mbtowc_r.o)
 .text._mbtowc_r
                0x00000000       0x54 d:/devkitpror43/devkitarm/bin/../lib/gcc/arm-none-eabi/5.3.0/../../../../arm-none-eabi/lib\libc.a(lib_a-mbtowc_r.o)
 .text.__ascii_mbtowc
                0x00000000       0x4c d:/devkitpror43/devkitarm/bin/../lib/gcc/arm-none-eabi/5.3.0/../../../../arm-none-eabi/lib\libc.a(lib_a-mbtowc_r.o)
 .text.__sjis_mbtowc
                0x00000000       0xdc d:/devkitpror43/devkitarm/bin/../lib/gcc/arm-none-eabi/5.3.0/../../../../arm-none-eabi/lib\libc.a(lib_a-mbtowc_r.o)
 .text.__eucjp_mbtowc
                0x00000000      0x150 d:/devkitpror43/devkitarm/bin/../lib/gcc/arm-none-eabi/5.3.0/../../../../arm-none-eabi/lib\libc.a(lib_a-mbtowc_r.o)
 .text.__jis_mbtowc
                0x00000000      0x1b8 d:/devkitpror43/devkitarm/bin/../lib/gcc/arm-none-eabi/5.3.0/../../../../arm-none-eabi/lib\libc.a(lib_a-mbtowc_r.o)
 .rodata.JIS_state_table
                0x00000000       0x48 d:/devkitpror43/devkitarm/bin/../lib/gcc/arm-none-eabi/5.3.0/../../../../arm-none-eabi/lib\libc.a(lib_a-mbtowc_r.o)
 .rodata.JIS_action_table
                0x00000000       0x48 d:/devkitpror43/devkitarm/bin/../lib/gcc/arm-none-eabi/5.3.0/../../../../arm-none-eabi/lib\libc.a(lib_a-mbtowc_r.o)
 .text          0x00000000        0x0 d:/devkitpror43/devkitarm/bin/../lib/gcc/arm-none-eabi/5.3.0/../../../../arm-none-eabi/lib\libc.a(lib_a-memchr.o)
 .data          0x00000000        0x0 d:/devkitpror43/devkitarm/bin/../lib/gcc/arm-none-eabi/5.3.0/../../../../arm-none-eabi/lib\libc.a(lib_a-memchr.o)
 .bss           0x00000000        0x0 d:/devkitpror43/devkitarm/bin/../lib/gcc/arm-none-eabi/5.3.0/../../../../arm-none-eabi/lib\libc.a(lib_a-memchr.o)
 .text          0x00000000        0x0 d:/devkitpror43/devkitarm/bin/../lib/gcc/arm-none-eabi/5.3.0/../../../../arm-none-eabi/lib\libc.a(lib_a-memcmp.o)
 .data          0x00000000        0x0 d:/devkitpror43/devkitarm/bin/../lib/gcc/arm-none-eabi/5.3.0/../../../../arm-none-eabi/lib\libc.a(lib_a-memcmp.o)
 .bss           0x00000000        0x0 d:/devkitpror43/devkitarm/bin/../lib/gcc/arm-none-eabi/5.3.0/../../../../arm-none-eabi/lib\libc.a(lib_a-memcmp.o)
 .text          0x00000000        0x0 d:/devkitpror43/devkitarm/bin/../lib/gcc/arm-none-eabi/5.3.0/../../../../arm-none-eabi/lib\libc.a(lib_a-memcpy.o)
 .data          0x00000000        0x0 d:/devkitpror43/devkitarm/bin/../lib/gcc/arm-none-eabi/5.3.0/../../../../arm-none-eabi/lib\libc.a(lib_a-memcpy.o)
 .bss           0x00000000        0x0 d:/devkitpror43/devkitarm/bin/../lib/gcc/arm-none-eabi/5.3.0/../../../../arm-none-eabi/lib\libc.a(lib_a-memcpy.o)
 .text          0x00000000        0x0 d:/devkitpror43/devkitarm/bin/../lib/gcc/arm-none-eabi/5.3.0/../../../../arm-none-eabi/lib\libc.a(lib_a-memmove.o)
 .data          0x00000000        0x0 d:/devkitpror43/devkitarm/bin/../lib/gcc/arm-none-eabi/5.3.0/../../../../arm-none-eabi/lib\libc.a(lib_a-memmove.o)
 .bss           0x00000000        0x0 d:/devkitpror43/devkitarm/bin/../lib/gcc/arm-none-eabi/5.3.0/../../../../arm-none-eabi/lib\libc.a(lib_a-memmove.o)
 .text          0x00000000        0x0 d:/devkitpror43/devkitarm/bin/../lib/gcc/arm-none-eabi/5.3.0/../../../../arm-none-eabi/lib\libc.a(lib_a-memset.o)
 .data          0x00000000        0x0 d:/devkitpror43/devkitarm/bin/../lib/gcc/arm-none-eabi/5.3.0/../../../../arm-none-eabi/lib\libc.a(lib_a-memset.o)
 .bss           0x00000000        0x0 d:/devkitpror43/devkitarm/bin/../lib/gcc/arm-none-eabi/5.3.0/../../../../arm-none-eabi/lib\libc.a(lib_a-memset.o)
 .text          0x00000000        0x0 d:/devkitpror43/devkitarm/bin/../lib/gcc/arm-none-eabi/5.3.0/../../../../arm-none-eabi/lib\libc.a(lib_a-mktime.o)
 .data          0x00000000        0x0 d:/devkitpror43/devkitarm/bin/../lib/gcc/arm-none-eabi/5.3.0/../../../../arm-none-eabi/lib\libc.a(lib_a-mktime.o)
 .bss           0x00000000        0x0 d:/devkitpror43/devkitarm/bin/../lib/gcc/arm-none-eabi/5.3.0/../../../../arm-none-eabi/lib\libc.a(lib_a-mktime.o)
 .text          0x00000000        0x0 d:/devkitpror43/devkitarm/bin/../lib/gcc/arm-none-eabi/5.3.0/../../../../arm-none-eabi/lib\libc.a(lib_a-mlock.o)
 .data          0x00000000        0x0 d:/devkitpror43/devkitarm/bin/../lib/gcc/arm-none-eabi/5.3.0/../../../../arm-none-eabi/lib\libc.a(lib_a-mlock.o)
 .bss           0x00000000        0x0 d:/devkitpror43/devkitarm/bin/../lib/gcc/arm-none-eabi/5.3.0/../../../../arm-none-eabi/lib\libc.a(lib_a-mlock.o)
 .text          0x00000000        0x0 d:/devkitpror43/devkitarm/bin/../lib/gcc/arm-none-eabi/5.3.0/../../../../arm-none-eabi/lib\libc.a(lib_a-month_lengths.o)
 .data          0x00000000        0x0 d:/devkitpror43/devkitarm/bin/../lib/gcc/arm-none-eabi/5.3.0/../../../../arm-none-eabi/lib\libc.a(lib_a-month_lengths.o)
 .bss           0x00000000        0x0 d:/devkitpror43/devkitarm/bin/../lib/gcc/arm-none-eabi/5.3.0/../../../../arm-none-eabi/lib\libc.a(lib_a-month_lengths.o)
 .text          0x00000000        0x0 d:/devkitpror43/devkitarm/bin/../lib/gcc/arm-none-eabi/5.3.0/../../../../arm-none-eabi/lib\libc.a(lib_a-printf.o)
 .data          0x00000000        0x0 d:/devkitpror43/devkitarm/bin/../lib/gcc/arm-none-eabi/5.3.0/../../../../arm-none-eabi/lib\libc.a(lib_a-printf.o)
 .bss           0x00000000        0x0 d:/devkitpror43/devkitarm/bin/../lib/gcc/arm-none-eabi/5.3.0/../../../../arm-none-eabi/lib\libc.a(lib_a-printf.o)
 .text._printf_r
                0x00000000       0x34 d:/devkitpror43/devkitarm/bin/../lib/gcc/arm-none-eabi/5.3.0/../../../../arm-none-eabi/lib\libc.a(lib_a-printf.o)
 .text          0x00000000        0x0 d:/devkitpror43/devkitarm/bin/../lib/gcc/arm-none-eabi/5.3.0/../../../../arm-none-eabi/lib\libc.a(lib_a-reallocr.o)
 .data          0x00000000        0x0 d:/devkitpror43/devkitarm/bin/../lib/gcc/arm-none-eabi/5.3.0/../../../../arm-none-eabi/lib\libc.a(lib_a-reallocr.o)
 .bss           0x00000000        0x0 d:/devkitpror43/devkitarm/bin/../lib/gcc/arm-none-eabi/5.3.0/../../../../arm-none-eabi/lib\libc.a(lib_a-reallocr.o)
 .text          0x00000000        0x0 d:/devkitpror43/devkitarm/bin/../lib/gcc/arm-none-eabi/5.3.0/../../../../arm-none-eabi/lib\libc.a(lib_a-refill.o)
 .data          0x00000000        0x0 d:/devkitpror43/devkitarm/bin/../lib/gcc/arm-none-eabi/5.3.0/../../../../arm-none-eabi/lib\libc.a(lib_a-refill.o)
 .bss           0x00000000        0x0 d:/devkitpror43/devkitarm/bin/../lib/gcc/arm-none-eabi/5.3.0/../../../../arm-none-eabi/lib\libc.a(lib_a-refill.o)
 .text          0x00000000        0x0 d:/devkitpror43/devkitarm/bin/../lib/gcc/arm-none-eabi/5.3.0/../../../../arm-none-eabi/lib\libc.a(lib_a-setvbuf.o)
 .data          0x00000000        0x0 d:/devkitpror43/devkitarm/bin/../lib/gcc/arm-none-eabi/5.3.0/../../../../arm-none-eabi/lib\libc.a(lib_a-setvbuf.o)
 .bss           0x00000000        0x0 d:/devkitpror43/devkitarm/bin/../lib/gcc/arm-none-eabi/5.3.0/../../../../arm-none-eabi/lib\libc.a(lib_a-setvbuf.o)
 .text          0x00000000        0x0 d:/devkitpror43/devkitarm/bin/../lib/gcc/arm-none-eabi/5.3.0/../../../../arm-none-eabi/lib\libc.a(lib_a-siscanf.o)
 .data          0x00000000        0x0 d:/devkitpror43/devkitarm/bin/../lib/gcc/arm-none-eabi/5.3.0/../../../../arm-none-eabi/lib\libc.a(lib_a-siscanf.o)
 .bss           0x00000000        0x0 d:/devkitpror43/devkitarm/bin/../lib/gcc/arm-none-eabi/5.3.0/../../../../arm-none-eabi/lib\libc.a(lib_a-siscanf.o)
 .text._siscanf_r
                0x00000000       0x80 d:/devkitpror43/devkitarm/bin/../lib/gcc/arm-none-eabi/5.3.0/../../../../arm-none-eabi/lib\libc.a(lib_a-siscanf.o)
 .text          0x00000000        0x0 d:/devkitpror43/devkitarm/bin/../lib/gcc/arm-none-eabi/5.3.0/../../../../arm-none-eabi/lib\libc.a(lib_a-sprintf.o)
 .data          0x00000000        0x0 d:/devkitpror43/devkitarm/bin/../lib/gcc/arm-none-eabi/5.3.0/../../../../arm-none-eabi/lib\libc.a(lib_a-sprintf.o)
 .bss           0x00000000        0x0 d:/devkitpror43/devkitarm/bin/../lib/gcc/arm-none-eabi/5.3.0/../../../../arm-none-eabi/lib\libc.a(lib_a-sprintf.o)
 .text._sprintf_r
                0x00000000       0x64 d:/devkitpror43/devkitarm/bin/../lib/gcc/arm-none-eabi/5.3.0/../../../../arm-none-eabi/lib\libc.a(lib_a-sprintf.o)
 .text          0x00000000        0x0 d:/devkitpror43/devkitarm/bin/../lib/gcc/arm-none-eabi/5.3.0/../../../../arm-none-eabi/lib\libc.a(lib_a-sscanf.o)
 .data          0x00000000        0x0 d:/devkitpror43/devkitarm/bin/../lib/gcc/arm-none-eabi/5.3.0/../../../../arm-none-eabi/lib\libc.a(lib_a-sscanf.o)
 .bss           0x00000000        0x0 d:/devkitpror43/devkitarm/bin/../lib/gcc/arm-none-eabi/5.3.0/../../../../arm-none-eabi/lib\libc.a(lib_a-sscanf.o)
 .text._sscanf_r
                0x00000000       0x80 d:/devkitpror43/devkitarm/bin/../lib/gcc/arm-none-eabi/5.3.0/../../../../arm-none-eabi/lib\libc.a(lib_a-sscanf.o)
 .text          0x00000000        0x0 d:/devkitpror43/devkitarm/bin/../lib/gcc/arm-none-eabi/5.3.0/../../../../arm-none-eabi/lib\libc.a(lib_a-stdio.o)
 .data          0x00000000        0x0 d:/devkitpror43/devkitarm/bin/../lib/gcc/arm-none-eabi/5.3.0/../../../../arm-none-eabi/lib\libc.a(lib_a-stdio.o)
 .bss           0x00000000        0x0 d:/devkitpror43/devkitarm/bin/../lib/gcc/arm-none-eabi/5.3.0/../../../../arm-none-eabi/lib\libc.a(lib_a-stdio.o)
 .text          0x00000000        0x0 d:/devkitpror43/devkitarm/bin/../lib/gcc/arm-none-eabi/5.3.0/../../../../arm-none-eabi/lib\libc.a(lib_a-strcasecmp.o)
 .data          0x00000000        0x0 d:/devkitpror43/devkitarm/bin/../lib/gcc/arm-none-eabi/5.3.0/../../../../arm-none-eabi/lib\libc.a(lib_a-strcasecmp.o)
 .bss           0x00000000        0x0 d:/devkitpror43/devkitarm/bin/../lib/gcc/arm-none-eabi/5.3.0/../../../../arm-none-eabi/lib\libc.a(lib_a-strcasecmp.o)
 .text          0x00000000        0x0 d:/devkitpror43/devkitarm/bin/../lib/gcc/arm-none-eabi/5.3.0/../../../../arm-none-eabi/lib\libc.a(lib_a-strcat.o)
 .data          0x00000000        0x0 d:/devkitpror43/devkitarm/bin/../lib/gcc/arm-none-eabi/5.3.0/../../../../arm-none-eabi/lib\libc.a(lib_a-strcat.o)
 .bss           0x00000000        0x0 d:/devkitpror43/devkitarm/bin/../lib/gcc/arm-none-eabi/5.3.0/../../../../arm-none-eabi/lib\libc.a(lib_a-strcat.o)
 .text          0x00000000        0x0 d:/devkitpror43/devkitarm/bin/../lib/gcc/arm-none-eabi/5.3.0/../../../../arm-none-eabi/lib\libc.a(lib_a-strchr.o)
 .data          0x00000000        0x0 d:/devkitpror43/devkitarm/bin/../lib/gcc/arm-none-eabi/5.3.0/../../../../arm-none-eabi/lib\libc.a(lib_a-strchr.o)
 .bss           0x00000000        0x0 d:/devkitpror43/devkitarm/bin/../lib/gcc/arm-none-eabi/5.3.0/../../../../arm-none-eabi/lib\libc.a(lib_a-strchr.o)
 .data          0x00000000        0x0 d:/devkitpror43/devkitarm/bin/../lib/gcc/arm-none-eabi/5.3.0/../../../../arm-none-eabi/lib\libc.a(lib_a-strcmp.o)
 .bss           0x00000000        0x0 d:/devkitpror43/devkitarm/bin/../lib/gcc/arm-none-eabi/5.3.0/../../../../arm-none-eabi/lib\libc.a(lib_a-strcmp.o)
 .text          0x00000000        0x0 d:/devkitpror43/devkitarm/bin/../lib/gcc/arm-none-eabi/5.3.0/../../../../arm-none-eabi/lib\libc.a(lib_a-strcpy.o)
 .data          0x00000000        0x0 d:/devkitpror43/devkitarm/bin/../lib/gcc/arm-none-eabi/5.3.0/../../../../arm-none-eabi/lib\libc.a(lib_a-strcpy.o)
 .bss           0x00000000        0x0 d:/devkitpror43/devkitarm/bin/../lib/gcc/arm-none-eabi/5.3.0/../../../../arm-none-eabi/lib\libc.a(lib_a-strcpy.o)
 .text          0x00000000        0x0 d:/devkitpror43/devkitarm/bin/../lib/gcc/arm-none-eabi/5.3.0/../../../../arm-none-eabi/lib\libc.a(lib_a-strlcpy.o)
 .data          0x00000000        0x0 d:/devkitpror43/devkitarm/bin/../lib/gcc/arm-none-eabi/5.3.0/../../../../arm-none-eabi/lib\libc.a(lib_a-strlcpy.o)
 .bss           0x00000000        0x0 d:/devkitpror43/devkitarm/bin/../lib/gcc/arm-none-eabi/5.3.0/../../../../arm-none-eabi/lib\libc.a(lib_a-strlcpy.o)
 .text.strlcpy  0x00000000       0x48 d:/devkitpror43/devkitarm/bin/../lib/gcc/arm-none-eabi/5.3.0/../../../../arm-none-eabi/lib\libc.a(lib_a-strlcpy.o)
 .comment       0x00000000       0x23 d:/devkitpror43/devkitarm/bin/../lib/gcc/arm-none-eabi/5.3.0/../../../../arm-none-eabi/lib\libc.a(lib_a-strlcpy.o)
 .ARM.attributes
                0x00000000       0x30 d:/devkitpror43/devkitarm/bin/../lib/gcc/arm-none-eabi/5.3.0/../../../../arm-none-eabi/lib\libc.a(lib_a-strlcpy.o)
 .text          0x00000000        0x0 d:/devkitpror43/devkitarm/bin/../lib/gcc/arm-none-eabi/5.3.0/../../../../arm-none-eabi/lib\libc.a(lib_a-strlen.o)
 .data          0x00000000        0x0 d:/devkitpror43/devkitarm/bin/../lib/gcc/arm-none-eabi/5.3.0/../../../../arm-none-eabi/lib\libc.a(lib_a-strlen.o)
 .bss           0x00000000        0x0 d:/devkitpror43/devkitarm/bin/../lib/gcc/arm-none-eabi/5.3.0/../../../../arm-none-eabi/lib\libc.a(lib_a-strlen.o)
 .text          0x00000000        0x0 d:/devkitpror43/devkitarm/bin/../lib/gcc/arm-none-eabi/5.3.0/../../../../arm-none-eabi/lib\libc.a(lib_a-strncasecmp.o)
 .data          0x00000000        0x0 d:/devkitpror43/devkitarm/bin/../lib/gcc/arm-none-eabi/5.3.0/../../../../arm-none-eabi/lib\libc.a(lib_a-strncasecmp.o)
 .bss           0x00000000        0x0 d:/devkitpror43/devkitarm/bin/../lib/gcc/arm-none-eabi/5.3.0/../../../../arm-none-eabi/lib\libc.a(lib_a-strncasecmp.o)
 .text          0x00000000        0x0 d:/devkitpror43/devkitarm/bin/../lib/gcc/arm-none-eabi/5.3.0/../../../../arm-none-eabi/lib\libc.a(lib_a-strncmp.o)
 .data          0x00000000        0x0 d:/devkitpror43/devkitarm/bin/../lib/gcc/arm-none-eabi/5.3.0/../../../../arm-none-eabi/lib\libc.a(lib_a-strncmp.o)
 .bss           0x00000000        0x0 d:/devkitpror43/devkitarm/bin/../lib/gcc/arm-none-eabi/5.3.0/../../../../arm-none-eabi/lib\libc.a(lib_a-strncmp.o)
 .text          0x00000000        0x0 d:/devkitpror43/devkitarm/bin/../lib/gcc/arm-none-eabi/5.3.0/../../../../arm-none-eabi/lib\libc.a(lib_a-strncpy.o)
 .data          0x00000000        0x0 d:/devkitpror43/devkitarm/bin/../lib/gcc/arm-none-eabi/5.3.0/../../../../arm-none-eabi/lib\libc.a(lib_a-strncpy.o)
 .bss           0x00000000        0x0 d:/devkitpror43/devkitarm/bin/../lib/gcc/arm-none-eabi/5.3.0/../../../../arm-none-eabi/lib\libc.a(lib_a-strncpy.o)
 .text          0x00000000        0x0 d:/devkitpror43/devkitarm/bin/../lib/gcc/arm-none-eabi/5.3.0/../../../../arm-none-eabi/lib\libc.a(lib_a-strnlen.o)
 .data          0x00000000        0x0 d:/devkitpror43/devkitarm/bin/../lib/gcc/arm-none-eabi/5.3.0/../../../../arm-none-eabi/lib\libc.a(lib_a-strnlen.o)
 .bss           0x00000000        0x0 d:/devkitpror43/devkitarm/bin/../lib/gcc/arm-none-eabi/5.3.0/../../../../arm-none-eabi/lib\libc.a(lib_a-strnlen.o)
 .text          0x00000000        0x0 d:/devkitpror43/devkitarm/bin/../lib/gcc/arm-none-eabi/5.3.0/../../../../arm-none-eabi/lib\libc.a(lib_a-strpbrk.o)
 .data          0x00000000        0x0 d:/devkitpror43/devkitarm/bin/../lib/gcc/arm-none-eabi/5.3.0/../../../../arm-none-eabi/lib\libc.a(lib_a-strpbrk.o)
 .bss           0x00000000        0x0 d:/devkitpror43/devkitarm/bin/../lib/gcc/arm-none-eabi/5.3.0/../../../../arm-none-eabi/lib\libc.a(lib_a-strpbrk.o)
 .text          0x00000000        0x0 d:/devkitpror43/devkitarm/bin/../lib/gcc/arm-none-eabi/5.3.0/../../../../arm-none-eabi/lib\libc.a(lib_a-strrchr.o)
 .data          0x00000000        0x0 d:/devkitpror43/devkitarm/bin/../lib/gcc/arm-none-eabi/5.3.0/../../../../arm-none-eabi/lib\libc.a(lib_a-strrchr.o)
 .bss           0x00000000        0x0 d:/devkitpror43/devkitarm/bin/../lib/gcc/arm-none-eabi/5.3.0/../../../../arm-none-eabi/lib\libc.a(lib_a-strrchr.o)
 .text          0x00000000        0x0 d:/devkitpror43/devkitarm/bin/../lib/gcc/arm-none-eabi/5.3.0/../../../../arm-none-eabi/lib\libc.a(lib_a-strtol.o)
 .data          0x00000000        0x0 d:/devkitpror43/devkitarm/bin/../lib/gcc/arm-none-eabi/5.3.0/../../../../arm-none-eabi/lib\libc.a(lib_a-strtol.o)
 .bss           0x00000000        0x0 d:/devkitpror43/devkitarm/bin/../lib/gcc/arm-none-eabi/5.3.0/../../../../arm-none-eabi/lib\libc.a(lib_a-strtol.o)
 .text.strtol   0x00000000       0x28 d:/devkitpror43/devkitarm/bin/../lib/gcc/arm-none-eabi/5.3.0/../../../../arm-none-eabi/lib\libc.a(lib_a-strtol.o)
 .text          0x00000000        0x0 d:/devkitpror43/devkitarm/bin/../lib/gcc/arm-none-eabi/5.3.0/../../../../arm-none-eabi/lib\libc.a(lib_a-svfiscanf.o)
 .data          0x00000000        0x0 d:/devkitpror43/devkitarm/bin/../lib/gcc/arm-none-eabi/5.3.0/../../../../arm-none-eabi/lib\libc.a(lib_a-svfiscanf.o)
 .bss           0x00000000        0x0 d:/devkitpror43/devkitarm/bin/../lib/gcc/arm-none-eabi/5.3.0/../../../../arm-none-eabi/lib\libc.a(lib_a-svfiscanf.o)
 .text          0x00000000        0x0 d:/devkitpror43/devkitarm/bin/../lib/gcc/arm-none-eabi/5.3.0/../../../../arm-none-eabi/lib\libc.a(lib_a-svfprintf.o)
 .data          0x00000000        0x0 d:/devkitpror43/devkitarm/bin/../lib/gcc/arm-none-eabi/5.3.0/../../../../arm-none-eabi/lib\libc.a(lib_a-svfprintf.o)
 .bss           0x00000000        0x0 d:/devkitpror43/devkitarm/bin/../lib/gcc/arm-none-eabi/5.3.0/../../../../arm-none-eabi/lib\libc.a(lib_a-svfprintf.o)
 .text          0x00000000        0x0 d:/devkitpror43/devkitarm/bin/../lib/gcc/arm-none-eabi/5.3.0/../../../../arm-none-eabi/lib\libc.a(lib_a-svfscanf.o)
 .data          0x00000000        0x0 d:/devkitpror43/devkitarm/bin/../lib/gcc/arm-none-eabi/5.3.0/../../../../arm-none-eabi/lib\libc.a(lib_a-svfscanf.o)
 .bss           0x00000000        0x0 d:/devkitpror43/devkitarm/bin/../lib/gcc/arm-none-eabi/5.3.0/../../../../arm-none-eabi/lib\libc.a(lib_a-svfscanf.o)
 .text          0x00000000        0x0 d:/devkitpror43/devkitarm/bin/../lib/gcc/arm-none-eabi/5.3.0/../../../../arm-none-eabi/lib\libc.a(lib_a-sysclose.o)
 .data          0x00000000        0x0 d:/devkitpror43/devkitarm/bin/../lib/gcc/arm-none-eabi/5.3.0/../../../../arm-none-eabi/lib\libc.a(lib_a-sysclose.o)
 .bss           0x00000000        0x0 d:/devkitpror43/devkitarm/bin/../lib/gcc/arm-none-eabi/5.3.0/../../../../arm-none-eabi/lib\libc.a(lib_a-sysclose.o)
 .text          0x00000000        0x0 d:/devkitpror43/devkitarm/bin/../lib/gcc/arm-none-eabi/5.3.0/../../../../arm-none-eabi/lib\libc.a(lib_a-sysread.o)
 .data          0x00000000        0x0 d:/devkitpror43/devkitarm/bin/../lib/gcc/arm-none-eabi/5.3.0/../../../../arm-none-eabi/lib\libc.a(lib_a-sysread.o)
 .bss           0x00000000        0x0 d:/devkitpror43/devkitarm/bin/../lib/gcc/arm-none-eabi/5.3.0/../../../../arm-none-eabi/lib\libc.a(lib_a-sysread.o)
 .text          0x00000000        0x0 d:/devkitpror43/devkitarm/bin/../lib/gcc/arm-none-eabi/5.3.0/../../../../arm-none-eabi/lib\libc.a(lib_a-syssbrk.o)
 .data          0x00000000        0x0 d:/devkitpror43/devkitarm/bin/../lib/gcc/arm-none-eabi/5.3.0/../../../../arm-none-eabi/lib\libc.a(lib_a-syssbrk.o)
 .bss           0x00000000        0x0 d:/devkitpror43/devkitarm/bin/../lib/gcc/arm-none-eabi/5.3.0/../../../../arm-none-eabi/lib\libc.a(lib_a-syssbrk.o)
 .text          0x00000000        0x0 d:/devkitpror43/devkitarm/bin/../lib/gcc/arm-none-eabi/5.3.0/../../../../arm-none-eabi/lib\libc.a(lib_a-syswrite.o)
 .data          0x00000000        0x0 d:/devkitpror43/devkitarm/bin/../lib/gcc/arm-none-eabi/5.3.0/../../../../arm-none-eabi/lib\libc.a(lib_a-syswrite.o)
 .bss           0x00000000        0x0 d:/devkitpror43/devkitarm/bin/../lib/gcc/arm-none-eabi/5.3.0/../../../../arm-none-eabi/lib\libc.a(lib_a-syswrite.o)
 .text          0x00000000        0x0 d:/devkitpror43/devkitarm/bin/../lib/gcc/arm-none-eabi/5.3.0/../../../../arm-none-eabi/lib\libc.a(lib_a-time.o)
 .data          0x00000000        0x0 d:/devkitpror43/devkitarm/bin/../lib/gcc/arm-none-eabi/5.3.0/../../../../arm-none-eabi/lib\libc.a(lib_a-time.o)
 .bss           0x00000000        0x0 d:/devkitpror43/devkitarm/bin/../lib/gcc/arm-none-eabi/5.3.0/../../../../arm-none-eabi/lib\libc.a(lib_a-time.o)
 .text          0x00000000        0x0 d:/devkitpror43/devkitarm/bin/../lib/gcc/arm-none-eabi/5.3.0/../../../../arm-none-eabi/lib\libc.a(lib_a-tolower.o)
 .data          0x00000000        0x0 d:/devkitpror43/devkitarm/bin/../lib/gcc/arm-none-eabi/5.3.0/../../../../arm-none-eabi/lib\libc.a(lib_a-tolower.o)
 .bss           0x00000000        0x0 d:/devkitpror43/devkitarm/bin/../lib/gcc/arm-none-eabi/5.3.0/../../../../arm-none-eabi/lib\libc.a(lib_a-tolower.o)
 .text          0x00000000        0x0 d:/devkitpror43/devkitarm/bin/../lib/gcc/arm-none-eabi/5.3.0/../../../../arm-none-eabi/lib\libc.a(lib_a-toupper.o)
 .data          0x00000000        0x0 d:/devkitpror43/devkitarm/bin/../lib/gcc/arm-none-eabi/5.3.0/../../../../arm-none-eabi/lib\libc.a(lib_a-toupper.o)
 .bss           0x00000000        0x0 d:/devkitpror43/devkitarm/bin/../lib/gcc/arm-none-eabi/5.3.0/../../../../arm-none-eabi/lib\libc.a(lib_a-toupper.o)
 .text          0x00000000        0x0 d:/devkitpror43/devkitarm/bin/../lib/gcc/arm-none-eabi/5.3.0/../../../../arm-none-eabi/lib\libc.a(lib_a-towlower.o)
 .data          0x00000000        0x0 d:/devkitpror43/devkitarm/bin/../lib/gcc/arm-none-eabi/5.3.0/../../../../arm-none-eabi/lib\libc.a(lib_a-towlower.o)
 .bss           0x00000000        0x0 d:/devkitpror43/devkitarm/bin/../lib/gcc/arm-none-eabi/5.3.0/../../../../arm-none-eabi/lib\libc.a(lib_a-towlower.o)
 .text          0x00000000        0x0 d:/devkitpror43/devkitarm/bin/../lib/gcc/arm-none-eabi/5.3.0/../../../../arm-none-eabi/lib\libc.a(lib_a-towupper.o)
 .data          0x00000000        0x0 d:/devkitpror43/devkitarm/bin/../lib/gcc/arm-none-eabi/5.3.0/../../../../arm-none-eabi/lib\libc.a(lib_a-towupper.o)
 .bss           0x00000000        0x0 d:/devkitpror43/devkitarm/bin/../lib/gcc/arm-none-eabi/5.3.0/../../../../arm-none-eabi/lib\libc.a(lib_a-towupper.o)
 .text          0x00000000        0x0 d:/devkitpror43/devkitarm/bin/../lib/gcc/arm-none-eabi/5.3.0/../../../../arm-none-eabi/lib\libc.a(lib_a-tzcalc_limits.o)
 .data          0x00000000        0x0 d:/devkitpror43/devkitarm/bin/../lib/gcc/arm-none-eabi/5.3.0/../../../../arm-none-eabi/lib\libc.a(lib_a-tzcalc_limits.o)
 .bss           0x00000000        0x0 d:/devkitpror43/devkitarm/bin/../lib/gcc/arm-none-eabi/5.3.0/../../../../arm-none-eabi/lib\libc.a(lib_a-tzcalc_limits.o)
 .text          0x00000000        0x0 d:/devkitpror43/devkitarm/bin/../lib/gcc/arm-none-eabi/5.3.0/../../../../arm-none-eabi/lib\libc.a(lib_a-tzlock.o)
 .data          0x00000000        0x0 d:/devkitpror43/devkitarm/bin/../lib/gcc/arm-none-eabi/5.3.0/../../../../arm-none-eabi/lib\libc.a(lib_a-tzlock.o)
 .bss           0x00000000        0x0 d:/devkitpror43/devkitarm/bin/../lib/gcc/arm-none-eabi/5.3.0/../../../../arm-none-eabi/lib\libc.a(lib_a-tzlock.o)
 .text          0x00000000        0x0 d:/devkitpror43/devkitarm/bin/../lib/gcc/arm-none-eabi/5.3.0/../../../../arm-none-eabi/lib\libc.a(lib_a-tzvars.o)
 .data          0x00000000        0x0 d:/devkitpror43/devkitarm/bin/../lib/gcc/arm-none-eabi/5.3.0/../../../../arm-none-eabi/lib\libc.a(lib_a-tzvars.o)
 .bss           0x00000000        0x0 d:/devkitpror43/devkitarm/bin/../lib/gcc/arm-none-eabi/5.3.0/../../../../arm-none-eabi/lib\libc.a(lib_a-tzvars.o)
 .data._tzname  0x00000000        0x8 d:/devkitpror43/devkitarm/bin/../lib/gcc/arm-none-eabi/5.3.0/../../../../arm-none-eabi/lib\libc.a(lib_a-tzvars.o)
 .bss._timezone
                0x00000000        0x4 d:/devkitpror43/devkitarm/bin/../lib/gcc/arm-none-eabi/5.3.0/../../../../arm-none-eabi/lib\libc.a(lib_a-tzvars.o)
 .rodata.str1.4
                0x00000000        0x4 d:/devkitpror43/devkitarm/bin/../lib/gcc/arm-none-eabi/5.3.0/../../../../arm-none-eabi/lib\libc.a(lib_a-tzvars.o)
 .text          0x00000000        0x0 d:/devkitpror43/devkitarm/bin/../lib/gcc/arm-none-eabi/5.3.0/../../../../arm-none-eabi/lib\libc.a(lib_a-ungetc.o)
 .data          0x00000000        0x0 d:/devkitpror43/devkitarm/bin/../lib/gcc/arm-none-eabi/5.3.0/../../../../arm-none-eabi/lib\libc.a(lib_a-ungetc.o)
 .bss           0x00000000        0x0 d:/devkitpror43/devkitarm/bin/../lib/gcc/arm-none-eabi/5.3.0/../../../../arm-none-eabi/lib\libc.a(lib_a-ungetc.o)
 .text._ungetc_r
                0x00000000      0x22c d:/devkitpror43/devkitarm/bin/../lib/gcc/arm-none-eabi/5.3.0/../../../../arm-none-eabi/lib\libc.a(lib_a-ungetc.o)
 .text.ungetc   0x00000000       0x20 d:/devkitpror43/devkitarm/bin/../lib/gcc/arm-none-eabi/5.3.0/../../../../arm-none-eabi/lib\libc.a(lib_a-ungetc.o)
 .text          0x00000000        0x0 d:/devkitpror43/devkitarm/bin/../lib/gcc/arm-none-eabi/5.3.0/../../../../arm-none-eabi/lib\libc.a(lib_a-vfiprintf.o)
 .data          0x00000000        0x0 d:/devkitpror43/devkitarm/bin/../lib/gcc/arm-none-eabi/5.3.0/../../../../arm-none-eabi/lib\libc.a(lib_a-vfiprintf.o)
 .bss           0x00000000        0x0 d:/devkitpror43/devkitarm/bin/../lib/gcc/arm-none-eabi/5.3.0/../../../../arm-none-eabi/lib\libc.a(lib_a-vfiprintf.o)
 .text.vfiprintf
                0x00000000       0x28 d:/devkitpror43/devkitarm/bin/../lib/gcc/arm-none-eabi/5.3.0/../../../../arm-none-eabi/lib\libc.a(lib_a-vfiprintf.o)
 .text          0x00000000        0x0 d:/devkitpror43/devkitarm/bin/../lib/gcc/arm-none-eabi/5.3.0/../../../../arm-none-eabi/lib\libc.a(lib_a-vfprintf.o)
 .data          0x00000000        0x0 d:/devkitpror43/devkitarm/bin/../lib/gcc/arm-none-eabi/5.3.0/../../../../arm-none-eabi/lib\libc.a(lib_a-vfprintf.o)
 .bss           0x00000000        0x0 d:/devkitpror43/devkitarm/bin/../lib/gcc/arm-none-eabi/5.3.0/../../../../arm-none-eabi/lib\libc.a(lib_a-vfprintf.o)
 .text.vfprintf
                0x00000000       0x28 d:/devkitpror43/devkitarm/bin/../lib/gcc/arm-none-eabi/5.3.0/../../../../arm-none-eabi/lib\libc.a(lib_a-vfprintf.o)
 .text          0x00000000        0x0 d:/devkitpror43/devkitarm/bin/../lib/gcc/arm-none-eabi/5.3.0/../../../../arm-none-eabi/lib\libc.a(lib_a-vsnprintf.o)
 .data          0x00000000        0x0 d:/devkitpror43/devkitarm/bin/../lib/gcc/arm-none-eabi/5.3.0/../../../../arm-none-eabi/lib\libc.a(lib_a-vsnprintf.o)
 .bss           0x00000000        0x0 d:/devkitpror43/devkitarm/bin/../lib/gcc/arm-none-eabi/5.3.0/../../../../arm-none-eabi/lib\libc.a(lib_a-vsnprintf.o)
 .text          0x00000000        0x0 d:/devkitpror43/devkitarm/bin/../lib/gcc/arm-none-eabi/5.3.0/../../../../arm-none-eabi/lib\libc.a(lib_a-wcrtomb.o)
 .data          0x00000000        0x0 d:/devkitpror43/devkitarm/bin/../lib/gcc/arm-none-eabi/5.3.0/../../../../arm-none-eabi/lib\libc.a(lib_a-wcrtomb.o)
 .bss           0x00000000        0x0 d:/devkitpror43/devkitarm/bin/../lib/gcc/arm-none-eabi/5.3.0/../../../../arm-none-eabi/lib\libc.a(lib_a-wcrtomb.o)
 .text          0x00000000        0x0 d:/devkitpror43/devkitarm/bin/../lib/gcc/arm-none-eabi/5.3.0/../../../../arm-none-eabi/lib\libc.a(lib_a-wcsrtombs.o)
 .data          0x00000000        0x0 d:/devkitpror43/devkitarm/bin/../lib/gcc/arm-none-eabi/5.3.0/../../../../arm-none-eabi/lib\libc.a(lib_a-wcsrtombs.o)
 .bss           0x00000000        0x0 d:/devkitpror43/devkitarm/bin/../lib/gcc/arm-none-eabi/5.3.0/../../../../arm-none-eabi/lib\libc.a(lib_a-wcsrtombs.o)
 .text.wcsrtombs
                0x00000000       0x3c d:/devkitpror43/devkitarm/bin/../lib/gcc/arm-none-eabi/5.3.0/../../../../arm-none-eabi/lib\libc.a(lib_a-wcsrtombs.o)
 .text          0x00000000        0x0 d:/devkitpror43/devkitarm/bin/../lib/gcc/arm-none-eabi/5.3.0/../../../../arm-none-eabi/lib\libc.a(lib_a-wctob.o)
 .data          0x00000000        0x0 d:/devkitpror43/devkitarm/bin/../lib/gcc/arm-none-eabi/5.3.0/../../../../arm-none-eabi/lib\libc.a(lib_a-wctob.o)
 .bss           0x00000000        0x0 d:/devkitpror43/devkitarm/bin/../lib/gcc/arm-none-eabi/5.3.0/../../../../arm-none-eabi/lib\libc.a(lib_a-wctob.o)
 .text          0x00000000        0x0 d:/devkitpror43/devkitarm/bin/../lib/gcc/arm-none-eabi/5.3.0/../../../../arm-none-eabi/lib\libc.a(lib_a-wctomb_r.o)
 .data          0x00000000        0x0 d:/devkitpror43/devkitarm/bin/../lib/gcc/arm-none-eabi/5.3.0/../../../../arm-none-eabi/lib\libc.a(lib_a-wctomb_r.o)
 .bss           0x00000000        0x0 d:/devkitpror43/devkitarm/bin/../lib/gcc/arm-none-eabi/5.3.0/../../../../arm-none-eabi/lib\libc.a(lib_a-wctomb_r.o)
 .text._wctomb_r
                0x00000000       0x50 d:/devkitpror43/devkitarm/bin/../lib/gcc/arm-none-eabi/5.3.0/../../../../arm-none-eabi/lib\libc.a(lib_a-wctomb_r.o)
 .text.__ascii_wctomb
                0x00000000       0x28 d:/devkitpror43/devkitarm/bin/../lib/gcc/arm-none-eabi/5.3.0/../../../../arm-none-eabi/lib\libc.a(lib_a-wctomb_r.o)
 .text.__sjis_wctomb
                0x00000000       0x8c d:/devkitpror43/devkitarm/bin/../lib/gcc/arm-none-eabi/5.3.0/../../../../arm-none-eabi/lib\libc.a(lib_a-wctomb_r.o)
 .text.__eucjp_wctomb
                0x00000000       0xc8 d:/devkitpror43/devkitarm/bin/../lib/gcc/arm-none-eabi/5.3.0/../../../../arm-none-eabi/lib\libc.a(lib_a-wctomb_r.o)
 .text.__jis_wctomb
                0x00000000       0xe0 d:/devkitpror43/devkitarm/bin/../lib/gcc/arm-none-eabi/5.3.0/../../../../arm-none-eabi/lib\libc.a(lib_a-wctomb_r.o)
 .text          0x00000000        0x0 d:/devkitpror43/devkitarm/bin/../lib/gcc/arm-none-eabi/5.3.0/../../../../arm-none-eabi/lib\libc.a(lib_a-wsetup.o)
 .data          0x00000000        0x0 d:/devkitpror43/devkitarm/bin/../lib/gcc/arm-none-eabi/5.3.0/../../../../arm-none-eabi/lib\libc.a(lib_a-wsetup.o)
 .bss           0x00000000        0x0 d:/devkitpror43/devkitarm/bin/../lib/gcc/arm-none-eabi/5.3.0/../../../../arm-none-eabi/lib\libc.a(lib_a-wsetup.o)
 .text          0x00000000        0x0 d:/devkitpror43/devkitarm/bin/../lib/gcc/arm-none-eabi/5.3.0/../../../../arm-none-eabi/lib\libc.a(lib_a-abort.o)
 .data          0x00000000        0x0 d:/devkitpror43/devkitarm/bin/../lib/gcc/arm-none-eabi/5.3.0/../../../../arm-none-eabi/lib\libc.a(lib_a-abort.o)
 .bss           0x00000000        0x0 d:/devkitpror43/devkitarm/bin/../lib/gcc/arm-none-eabi/5.3.0/../../../../arm-none-eabi/lib\libc.a(lib_a-abort.o)
 .text          0x00000000        0x0 d:/devkitpror43/devkitarm/bin/../lib/gcc/arm-none-eabi/5.3.0/../../../../arm-none-eabi/lib\libc.a(lib_a-div.o)
 .data          0x00000000        0x0 d:/devkitpror43/devkitarm/bin/../lib/gcc/arm-none-eabi/5.3.0/../../../../arm-none-eabi/lib\libc.a(lib_a-div.o)
 .bss           0x00000000        0x0 d:/devkitpror43/devkitarm/bin/../lib/gcc/arm-none-eabi/5.3.0/../../../../arm-none-eabi/lib\libc.a(lib_a-div.o)
 .text          0x00000000        0x0 d:/devkitpror43/devkitarm/bin/../lib/gcc/arm-none-eabi/5.3.0/../../../../arm-none-eabi/lib\libc.a(lib_a-dtoa.o)
 .data          0x00000000        0x0 d:/devkitpror43/devkitarm/bin/../lib/gcc/arm-none-eabi/5.3.0/../../../../arm-none-eabi/lib\libc.a(lib_a-dtoa.o)
 .bss           0x00000000        0x0 d:/devkitpror43/devkitarm/bin/../lib/gcc/arm-none-eabi/5.3.0/../../../../arm-none-eabi/lib\libc.a(lib_a-dtoa.o)
 .text          0x00000000        0x0 d:/devkitpror43/devkitarm/bin/../lib/gcc/arm-none-eabi/5.3.0/../../../../arm-none-eabi/lib\libc.a(lib_a-flags.o)
 .data          0x00000000        0x0 d:/devkitpror43/devkitarm/bin/../lib/gcc/arm-none-eabi/5.3.0/../../../../arm-none-eabi/lib\libc.a(lib_a-flags.o)
 .bss           0x00000000        0x0 d:/devkitpror43/devkitarm/bin/../lib/gcc/arm-none-eabi/5.3.0/../../../../arm-none-eabi/lib\libc.a(lib_a-flags.o)
 .text          0x00000000        0x0 d:/devkitpror43/devkitarm/bin/../lib/gcc/arm-none-eabi/5.3.0/../../../../arm-none-eabi/lib\libc.a(lib_a-fputwc.o)
 .data          0x00000000        0x0 d:/devkitpror43/devkitarm/bin/../lib/gcc/arm-none-eabi/5.3.0/../../../../arm-none-eabi/lib\libc.a(lib_a-fputwc.o)
 .bss           0x00000000        0x0 d:/devkitpror43/devkitarm/bin/../lib/gcc/arm-none-eabi/5.3.0/../../../../arm-none-eabi/lib\libc.a(lib_a-fputwc.o)
 .text.fputwc   0x00000000       0x38 d:/devkitpror43/devkitarm/bin/../lib/gcc/arm-none-eabi/5.3.0/../../../../arm-none-eabi/lib\libc.a(lib_a-fputwc.o)
 .text          0x00000000        0x0 d:/devkitpror43/devkitarm/bin/../lib/gcc/arm-none-eabi/5.3.0/../../../../arm-none-eabi/lib\libc.a(lib_a-getenv_r.o)
 .data          0x00000000        0x0 d:/devkitpror43/devkitarm/bin/../lib/gcc/arm-none-eabi/5.3.0/../../../../arm-none-eabi/lib\libc.a(lib_a-getenv_r.o)
 .bss           0x00000000        0x0 d:/devkitpror43/devkitarm/bin/../lib/gcc/arm-none-eabi/5.3.0/../../../../arm-none-eabi/lib\libc.a(lib_a-getenv_r.o)
 .text._findenv_r
                0x00000000       0xd0 d:/devkitpror43/devkitarm/bin/../lib/gcc/arm-none-eabi/5.3.0/../../../../arm-none-eabi/lib\libc.a(lib_a-getenv_r.o)
 .text._getenv_r
                0x00000000       0x1c d:/devkitpror43/devkitarm/bin/../lib/gcc/arm-none-eabi/5.3.0/../../../../arm-none-eabi/lib\libc.a(lib_a-getenv_r.o)
 .comment       0x00000000       0x23 d:/devkitpror43/devkitarm/bin/../lib/gcc/arm-none-eabi/5.3.0/../../../../arm-none-eabi/lib\libc.a(lib_a-getenv_r.o)
 .ARM.attributes
                0x00000000       0x30 d:/devkitpror43/devkitarm/bin/../lib/gcc/arm-none-eabi/5.3.0/../../../../arm-none-eabi/lib\libc.a(lib_a-getenv_r.o)
 .text          0x00000000        0x0 d:/devkitpror43/devkitarm/bin/../lib/gcc/arm-none-eabi/5.3.0/../../../../arm-none-eabi/lib\libc.a(lib_a-gettzinfo.o)
 .data          0x00000000        0x0 d:/devkitpror43/devkitarm/bin/../lib/gcc/arm-none-eabi/5.3.0/../../../../arm-none-eabi/lib\libc.a(lib_a-gettzinfo.o)
 .bss           0x00000000        0x0 d:/devkitpror43/devkitarm/bin/../lib/gcc/arm-none-eabi/5.3.0/../../../../arm-none-eabi/lib\libc.a(lib_a-gettzinfo.o)
 .text          0x00000000        0x0 d:/devkitpror43/devkitarm/bin/../lib/gcc/arm-none-eabi/5.3.0/../../../../arm-none-eabi/lib\libc.a(lib_a-gmtime_r.o)
 .data          0x00000000        0x0 d:/devkitpror43/devkitarm/bin/../lib/gcc/arm-none-eabi/5.3.0/../../../../arm-none-eabi/lib\libc.a(lib_a-gmtime_r.o)
 .bss           0x00000000        0x0 d:/devkitpror43/devkitarm/bin/../lib/gcc/arm-none-eabi/5.3.0/../../../../arm-none-eabi/lib\libc.a(lib_a-gmtime_r.o)
 .text          0x00000000        0x0 d:/devkitpror43/devkitarm/bin/../lib/gcc/arm-none-eabi/5.3.0/../../../../arm-none-eabi/lib\libc.a(lib_a-iswspace.o)
 .data          0x00000000        0x0 d:/devkitpror43/devkitarm/bin/../lib/gcc/arm-none-eabi/5.3.0/../../../../arm-none-eabi/lib\libc.a(lib_a-iswspace.o)
 .bss           0x00000000        0x0 d:/devkitpror43/devkitarm/bin/../lib/gcc/arm-none-eabi/5.3.0/../../../../arm-none-eabi/lib\libc.a(lib_a-iswspace.o)
 .text          0x00000000        0x0 d:/devkitpror43/devkitarm/bin/../lib/gcc/arm-none-eabi/5.3.0/../../../../arm-none-eabi/lib\libc.a(lib_a-jp2uc.o)
 .data          0x00000000        0x0 d:/devkitpror43/devkitarm/bin/../lib/gcc/arm-none-eabi/5.3.0/../../../../arm-none-eabi/lib\libc.a(lib_a-jp2uc.o)
 .bss           0x00000000        0x0 d:/devkitpror43/devkitarm/bin/../lib/gcc/arm-none-eabi/5.3.0/../../../../arm-none-eabi/lib\libc.a(lib_a-jp2uc.o)
 .text          0x00000000        0x0 d:/devkitpror43/devkitarm/bin/../lib/gcc/arm-none-eabi/5.3.0/../../../../arm-none-eabi/lib\libc.a(lib_a-mbsnrtowcs.o)
 .data          0x00000000        0x0 d:/devkitpror43/devkitarm/bin/../lib/gcc/arm-none-eabi/5.3.0/../../../../arm-none-eabi/lib\libc.a(lib_a-mbsnrtowcs.o)
 .bss           0x00000000        0x0 d:/devkitpror43/devkitarm/bin/../lib/gcc/arm-none-eabi/5.3.0/../../../../arm-none-eabi/lib\libc.a(lib_a-mbsnrtowcs.o)
 .text.mbsnrtowcs
                0x00000000       0x44 d:/devkitpror43/devkitarm/bin/../lib/gcc/arm-none-eabi/5.3.0/../../../../arm-none-eabi/lib\libc.a(lib_a-mbsnrtowcs.o)
 .text          0x00000000        0x0 d:/devkitpror43/devkitarm/bin/../lib/gcc/arm-none-eabi/5.3.0/../../../../arm-none-eabi/lib\libc.a(lib_a-mprec.o)
 .data          0x00000000        0x0 d:/devkitpror43/devkitarm/bin/../lib/gcc/arm-none-eabi/5.3.0/../../../../arm-none-eabi/lib\libc.a(lib_a-mprec.o)
 .bss           0x00000000        0x0 d:/devkitpror43/devkitarm/bin/../lib/gcc/arm-none-eabi/5.3.0/../../../../arm-none-eabi/lib\libc.a(lib_a-mprec.o)
 .text._mprec_log10
                0x00000000       0x54 d:/devkitpror43/devkitarm/bin/../lib/gcc/arm-none-eabi/5.3.0/../../../../arm-none-eabi/lib\libc.a(lib_a-mprec.o)
 .rodata.__mprec_tinytens
                0x00000000       0x28 d:/devkitpror43/devkitarm/bin/../lib/gcc/arm-none-eabi/5.3.0/../../../../arm-none-eabi/lib\libc.a(lib_a-mprec.o)
 .text          0x00000000        0x0 d:/devkitpror43/devkitarm/bin/../lib/gcc/arm-none-eabi/5.3.0/../../../../arm-none-eabi/lib\libc.a(lib_a-sccl.o)
 .data          0x00000000        0x0 d:/devkitpror43/devkitarm/bin/../lib/gcc/arm-none-eabi/5.3.0/../../../../arm-none-eabi/lib\libc.a(lib_a-sccl.o)
 .bss           0x00000000        0x0 d:/devkitpror43/devkitarm/bin/../lib/gcc/arm-none-eabi/5.3.0/../../../../arm-none-eabi/lib\libc.a(lib_a-sccl.o)
 .text          0x00000000        0x0 d:/devkitpror43/devkitarm/bin/../lib/gcc/arm-none-eabi/5.3.0/../../../../arm-none-eabi/lib\libc.a(lib_a-sf_nan.o)
 .data          0x00000000        0x0 d:/devkitpror43/devkitarm/bin/../lib/gcc/arm-none-eabi/5.3.0/../../../../arm-none-eabi/lib\libc.a(lib_a-sf_nan.o)
 .bss           0x00000000        0x0 d:/devkitpror43/devkitarm/bin/../lib/gcc/arm-none-eabi/5.3.0/../../../../arm-none-eabi/lib\libc.a(lib_a-sf_nan.o)
 .text          0x00000000        0x0 d:/devkitpror43/devkitarm/bin/../lib/gcc/arm-none-eabi/5.3.0/../../../../arm-none-eabi/lib\libc.a(lib_a-s_frexp.o)
 .data          0x00000000        0x0 d:/devkitpror43/devkitarm/bin/../lib/gcc/arm-none-eabi/5.3.0/../../../../arm-none-eabi/lib\libc.a(lib_a-s_frexp.o)
 .bss           0x00000000        0x0 d:/devkitpror43/devkitarm/bin/../lib/gcc/arm-none-eabi/5.3.0/../../../../arm-none-eabi/lib\libc.a(lib_a-s_frexp.o)
 .text          0x00000000        0x0 d:/devkitpror43/devkitarm/bin/../lib/gcc/arm-none-eabi/5.3.0/../../../../arm-none-eabi/lib\libc.a(lib_a-signal.o)
 .data          0x00000000        0x0 d:/devkitpror43/devkitarm/bin/../lib/gcc/arm-none-eabi/5.3.0/../../../../arm-none-eabi/lib\libc.a(lib_a-signal.o)
 .bss           0x00000000        0x0 d:/devkitpror43/devkitarm/bin/../lib/gcc/arm-none-eabi/5.3.0/../../../../arm-none-eabi/lib\libc.a(lib_a-signal.o)
 .text._init_signal_r
                0x00000000       0x60 d:/devkitpror43/devkitarm/bin/../lib/gcc/arm-none-eabi/5.3.0/../../../../arm-none-eabi/lib\libc.a(lib_a-signal.o)
 .text._signal_r
                0x00000000       0x60 d:/devkitpror43/devkitarm/bin/../lib/gcc/arm-none-eabi/5.3.0/../../../../arm-none-eabi/lib\libc.a(lib_a-signal.o)
 .text.__sigtramp_r
                0x00000000       0x94 d:/devkitpror43/devkitarm/bin/../lib/gcc/arm-none-eabi/5.3.0/../../../../arm-none-eabi/lib\libc.a(lib_a-signal.o)
 .text.signal   0x00000000       0x20 d:/devkitpror43/devkitarm/bin/../lib/gcc/arm-none-eabi/5.3.0/../../../../arm-none-eabi/lib\libc.a(lib_a-signal.o)
 .text._init_signal
                0x00000000       0x10 d:/devkitpror43/devkitarm/bin/../lib/gcc/arm-none-eabi/5.3.0/../../../../arm-none-eabi/lib\libc.a(lib_a-signal.o)
 .text.__sigtramp
                0x00000000       0x18 d:/devkitpror43/devkitarm/bin/../lib/gcc/arm-none-eabi/5.3.0/../../../../arm-none-eabi/lib\libc.a(lib_a-signal.o)
 .text          0x00000000        0x0 d:/devkitpror43/devkitarm/bin/../lib/gcc/arm-none-eabi/5.3.0/../../../../arm-none-eabi/lib\libc.a(lib_a-stpncpy.o)
 .data          0x00000000        0x0 d:/devkitpror43/devkitarm/bin/../lib/gcc/arm-none-eabi/5.3.0/../../../../arm-none-eabi/lib\libc.a(lib_a-stpncpy.o)
 .bss           0x00000000        0x0 d:/devkitpror43/devkitarm/bin/../lib/gcc/arm-none-eabi/5.3.0/../../../../arm-none-eabi/lib\libc.a(lib_a-stpncpy.o)
 .text          0x00000000        0x0 d:/devkitpror43/devkitarm/bin/../lib/gcc/arm-none-eabi/5.3.0/../../../../arm-none-eabi/lib\libc.a(lib_a-strtod.o)
 .data          0x00000000        0x0 d:/devkitpror43/devkitarm/bin/../lib/gcc/arm-none-eabi/5.3.0/../../../../arm-none-eabi/lib\libc.a(lib_a-strtod.o)
 .bss           0x00000000        0x0 d:/devkitpror43/devkitarm/bin/../lib/gcc/arm-none-eabi/5.3.0/../../../../arm-none-eabi/lib\libc.a(lib_a-strtod.o)
 .text.strtod   0x00000000       0x20 d:/devkitpror43/devkitarm/bin/../lib/gcc/arm-none-eabi/5.3.0/../../../../arm-none-eabi/lib\libc.a(lib_a-strtod.o)
 .text.strtof   0x00000000       0x50 d:/devkitpror43/devkitarm/bin/../lib/gcc/arm-none-eabi/5.3.0/../../../../arm-none-eabi/lib\libc.a(lib_a-strtod.o)
 .text          0x00000000        0x0 d:/devkitpror43/devkitarm/bin/../lib/gcc/arm-none-eabi/5.3.0/../../../../arm-none-eabi/lib\libc.a(lib_a-strtoll_r.o)
 .data          0x00000000        0x0 d:/devkitpror43/devkitarm/bin/../lib/gcc/arm-none-eabi/5.3.0/../../../../arm-none-eabi/lib\libc.a(lib_a-strtoll_r.o)
 .bss           0x00000000        0x0 d:/devkitpror43/devkitarm/bin/../lib/gcc/arm-none-eabi/5.3.0/../../../../arm-none-eabi/lib\libc.a(lib_a-strtoll_r.o)
 .text          0x00000000        0x0 d:/devkitpror43/devkitarm/bin/../lib/gcc/arm-none-eabi/5.3.0/../../../../arm-none-eabi/lib\libc.a(lib_a-strtoull_r.o)
 .data          0x00000000        0x0 d:/devkitpror43/devkitarm/bin/../lib/gcc/arm-none-eabi/5.3.0/../../../../arm-none-eabi/lib\libc.a(lib_a-strtoull_r.o)
 .bss           0x00000000        0x0 d:/devkitpror43/devkitarm/bin/../lib/gcc/arm-none-eabi/5.3.0/../../../../arm-none-eabi/lib\libc.a(lib_a-strtoull_r.o)
 .text          0x00000000        0x0 d:/devkitpror43/devkitarm/bin/../lib/gcc/arm-none-eabi/5.3.0/../../../../arm-none-eabi/lib\libc.a(lib_a-strtoul.o)
 .data          0x00000000        0x0 d:/devkitpror43/devkitarm/bin/../lib/gcc/arm-none-eabi/5.3.0/../../../../arm-none-eabi/lib\libc.a(lib_a-strtoul.o)
 .bss           0x00000000        0x0 d:/devkitpror43/devkitarm/bin/../lib/gcc/arm-none-eabi/5.3.0/../../../../arm-none-eabi/lib\libc.a(lib_a-strtoul.o)
 .text.strtoul  0x00000000       0x28 d:/devkitpror43/devkitarm/bin/../lib/gcc/arm-none-eabi/5.3.0/../../../../arm-none-eabi/lib\libc.a(lib_a-strtoul.o)
 .text          0x00000000        0x0 d:/devkitpror43/devkitarm/bin/../lib/gcc/arm-none-eabi/5.3.0/../../../../arm-none-eabi/lib\libc.a(lib_a-svfiprintf.o)
 .data          0x00000000        0x0 d:/devkitpror43/devkitarm/bin/../lib/gcc/arm-none-eabi/5.3.0/../../../../arm-none-eabi/lib\libc.a(lib_a-svfiprintf.o)
 .bss           0x00000000        0x0 d:/devkitpror43/devkitarm/bin/../lib/gcc/arm-none-eabi/5.3.0/../../../../arm-none-eabi/lib\libc.a(lib_a-svfiprintf.o)
 .text.get_arg  0x00000000     0x1630 d:/devkitpror43/devkitarm/bin/../lib/gcc/arm-none-eabi/5.3.0/../../../../arm-none-eabi/lib\libc.a(lib_a-svfiprintf.o)
 .text._svfiprintf_r
                0x00000000     0x3438 d:/devkitpror43/devkitarm/bin/../lib/gcc/arm-none-eabi/5.3.0/../../../../arm-none-eabi/lib\libc.a(lib_a-svfiprintf.o)
 .rodata.zeroes.7100
                0x00000000       0x10 d:/devkitpror43/devkitarm/bin/../lib/gcc/arm-none-eabi/5.3.0/../../../../arm-none-eabi/lib\libc.a(lib_a-svfiprintf.o)
 .rodata.str1.4
                0x00000000       0x30 d:/devkitpror43/devkitarm/bin/../lib/gcc/arm-none-eabi/5.3.0/../../../../arm-none-eabi/lib\libc.a(lib_a-svfiprintf.o)
 .rodata.blanks.7099
                0x00000000       0x10 d:/devkitpror43/devkitarm/bin/../lib/gcc/arm-none-eabi/5.3.0/../../../../arm-none-eabi/lib\libc.a(lib_a-svfiprintf.o)
 .text          0x00000000        0x0 d:/devkitpror43/devkitarm/bin/../lib/gcc/arm-none-eabi/5.3.0/../../../../arm-none-eabi/lib\libc.a(lib_a-wbuf.o)
 .data          0x00000000        0x0 d:/devkitpror43/devkitarm/bin/../lib/gcc/arm-none-eabi/5.3.0/../../../../arm-none-eabi/lib\libc.a(lib_a-wbuf.o)
 .bss           0x00000000        0x0 d:/devkitpror43/devkitarm/bin/../lib/gcc/arm-none-eabi/5.3.0/../../../../arm-none-eabi/lib\libc.a(lib_a-wbuf.o)
 .text.__swbuf  0x00000000       0x20 d:/devkitpror43/devkitarm/bin/../lib/gcc/arm-none-eabi/5.3.0/../../../../arm-none-eabi/lib\libc.a(lib_a-wbuf.o)
 .text          0x00000000        0x0 d:/devkitpror43/devkitarm/bin/../lib/gcc/arm-none-eabi/5.3.0/../../../../arm-none-eabi/lib\libc.a(lib_a-wcsnrtombs.o)
 .data          0x00000000        0x0 d:/devkitpror43/devkitarm/bin/../lib/gcc/arm-none-eabi/5.3.0/../../../../arm-none-eabi/lib\libc.a(lib_a-wcsnrtombs.o)
 .bss           0x00000000        0x0 d:/devkitpror43/devkitarm/bin/../lib/gcc/arm-none-eabi/5.3.0/../../../../arm-none-eabi/lib\libc.a(lib_a-wcsnrtombs.o)
 .text.wcsnrtombs
                0x00000000       0x44 d:/devkitpror43/devkitarm/bin/../lib/gcc/arm-none-eabi/5.3.0/../../../../arm-none-eabi/lib\libc.a(lib_a-wcsnrtombs.o)
 .text          0x00000000        0x0 d:/devkitpror43/devkitarm/bin/../lib/gcc/arm-none-eabi/5.3.0/../../../../arm-none-eabi/lib\libc.a(lib_a-environ.o)
 .data          0x00000000        0x0 d:/devkitpror43/devkitarm/bin/../lib/gcc/arm-none-eabi/5.3.0/../../../../arm-none-eabi/lib\libc.a(lib_a-environ.o)
 .bss           0x00000000        0x0 d:/devkitpror43/devkitarm/bin/../lib/gcc/arm-none-eabi/5.3.0/../../../../arm-none-eabi/lib\libc.a(lib_a-environ.o)
 .data.environ  0x00000000        0x4 d:/devkitpror43/devkitarm/bin/../lib/gcc/arm-none-eabi/5.3.0/../../../../arm-none-eabi/lib\libc.a(lib_a-environ.o)
 .bss.initial_env
                0x00000000        0x4 d:/devkitpror43/devkitarm/bin/../lib/gcc/arm-none-eabi/5.3.0/../../../../arm-none-eabi/lib\libc.a(lib_a-environ.o)
 .comment       0x00000000       0x23 d:/devkitpror43/devkitarm/bin/../lib/gcc/arm-none-eabi/5.3.0/../../../../arm-none-eabi/lib\libc.a(lib_a-environ.o)
 .ARM.attributes
                0x00000000       0x30 d:/devkitpror43/devkitarm/bin/../lib/gcc/arm-none-eabi/5.3.0/../../../../arm-none-eabi/lib\libc.a(lib_a-environ.o)
 .text          0x00000000        0x0 d:/devkitpror43/devkitarm/bin/../lib/gcc/arm-none-eabi/5.3.0/../../../../arm-none-eabi/lib\libc.a(lib_a-envlock.o)
 .data          0x00000000        0x0 d:/devkitpror43/devkitarm/bin/../lib/gcc/arm-none-eabi/5.3.0/../../../../arm-none-eabi/lib\libc.a(lib_a-envlock.o)
 .bss           0x00000000        0x0 d:/devkitpror43/devkitarm/bin/../lib/gcc/arm-none-eabi/5.3.0/../../../../arm-none-eabi/lib\libc.a(lib_a-envlock.o)
 .text.__env_lock
                0x00000000       0x18 d:/devkitpror43/devkitarm/bin/../lib/gcc/arm-none-eabi/5.3.0/../../../../arm-none-eabi/lib\libc.a(lib_a-envlock.o)
 .text.__env_unlock
                0x00000000       0x18 d:/devkitpror43/devkitarm/bin/../lib/gcc/arm-none-eabi/5.3.0/../../../../arm-none-eabi/lib\libc.a(lib_a-envlock.o)
 .data.__env_lock_object
                0x00000000        0xc d:/devkitpror43/devkitarm/bin/../lib/gcc/arm-none-eabi/5.3.0/../../../../arm-none-eabi/lib\libc.a(lib_a-envlock.o)
 .comment       0x00000000       0x23 d:/devkitpror43/devkitarm/bin/../lib/gcc/arm-none-eabi/5.3.0/../../../../arm-none-eabi/lib\libc.a(lib_a-envlock.o)
 .ARM.attributes
                0x00000000       0x30 d:/devkitpror43/devkitarm/bin/../lib/gcc/arm-none-eabi/5.3.0/../../../../arm-none-eabi/lib\libc.a(lib_a-envlock.o)
 .text          0x00000000        0x0 d:/devkitpror43/devkitarm/bin/../lib/gcc/arm-none-eabi/5.3.0/../../../../arm-none-eabi/lib\libc.a(lib_a-gdtoa-gethex.o)
 .data          0x00000000        0x0 d:/devkitpror43/devkitarm/bin/../lib/gcc/arm-none-eabi/5.3.0/../../../../arm-none-eabi/lib\libc.a(lib_a-gdtoa-gethex.o)
 .bss           0x00000000        0x0 d:/devkitpror43/devkitarm/bin/../lib/gcc/arm-none-eabi/5.3.0/../../../../arm-none-eabi/lib\libc.a(lib_a-gdtoa-gethex.o)
 .text          0x00000000        0x0 d:/devkitpror43/devkitarm/bin/../lib/gcc/arm-none-eabi/5.3.0/../../../../arm-none-eabi/lib\libc.a(lib_a-gdtoa-hexnan.o)
 .data          0x00000000        0x0 d:/devkitpror43/devkitarm/bin/../lib/gcc/arm-none-eabi/5.3.0/../../../../arm-none-eabi/lib\libc.a(lib_a-gdtoa-hexnan.o)
 .bss           0x00000000        0x0 d:/devkitpror43/devkitarm/bin/../lib/gcc/arm-none-eabi/5.3.0/../../../../arm-none-eabi/lib\libc.a(lib_a-gdtoa-hexnan.o)
 .bss           0x00000000        0x0 d:/devkitpror43/devkitarm/bin/../lib/gcc/arm-none-eabi/5.3.0/../../../../arm-none-eabi/lib\libsysbase.a(iosupport.o)
 .data          0x00000000        0x0 d:/devkitpror43/devkitarm/bin/../lib/gcc/arm-none-eabi/5.3.0/../../../../arm-none-eabi/lib\libsysbase.a(close.o)
 .bss           0x00000000        0x0 d:/devkitpror43/devkitarm/bin/../lib/gcc/arm-none-eabi/5.3.0/../../../../arm-none-eabi/lib\libsysbase.a(close.o)
 .data          0x00000000        0x0 d:/devkitpror43/devkitarm/bin/../lib/gcc/arm-none-eabi/5.3.0/../../../../arm-none-eabi/lib\libsysbase.a(fstat.o)
 .bss           0x00000000        0x0 d:/devkitpror43/devkitarm/bin/../lib/gcc/arm-none-eabi/5.3.0/../../../../arm-none-eabi/lib\libsysbase.a(fstat.o)
 .data          0x00000000        0x0 d:/devkitpror43/devkitarm/bin/../lib/gcc/arm-none-eabi/5.3.0/../../../../arm-none-eabi/lib\libsysbase.a(getpid.o)
 .bss           0x00000000        0x0 d:/devkitpror43/devkitarm/bin/../lib/gcc/arm-none-eabi/5.3.0/../../../../arm-none-eabi/lib\libsysbase.a(getpid.o)
 .data          0x00000000        0x0 d:/devkitpror43/devkitarm/bin/../lib/gcc/arm-none-eabi/5.3.0/../../../../arm-none-eabi/lib\libsysbase.a(gettod.o)
 .bss           0x00000000        0x0 d:/devkitpror43/devkitarm/bin/../lib/gcc/arm-none-eabi/5.3.0/../../../../arm-none-eabi/lib\libsysbase.a(gettod.o)
 .data          0x00000000        0x0 d:/devkitpror43/devkitarm/bin/../lib/gcc/arm-none-eabi/5.3.0/../../../../arm-none-eabi/lib\libsysbase.a(isatty.o)
 .bss           0x00000000        0x0 d:/devkitpror43/devkitarm/bin/../lib/gcc/arm-none-eabi/5.3.0/../../../../arm-none-eabi/lib\libsysbase.a(isatty.o)
 .data          0x00000000        0x0 d:/devkitpror43/devkitarm/bin/../lib/gcc/arm-none-eabi/5.3.0/../../../../arm-none-eabi/lib\libsysbase.a(kill.o)
 .bss           0x00000000        0x0 d:/devkitpror43/devkitarm/bin/../lib/gcc/arm-none-eabi/5.3.0/../../../../arm-none-eabi/lib\libsysbase.a(kill.o)
 .data          0x00000000        0x0 d:/devkitpror43/devkitarm/bin/../lib/gcc/arm-none-eabi/5.3.0/../../../../arm-none-eabi/lib\libsysbase.a(lseek.o)
 .bss           0x00000000        0x0 d:/devkitpror43/devkitarm/bin/../lib/gcc/arm-none-eabi/5.3.0/../../../../arm-none-eabi/lib\libsysbase.a(lseek.o)
 .data          0x00000000        0x0 d:/devkitpror43/devkitarm/bin/../lib/gcc/arm-none-eabi/5.3.0/../../../../arm-none-eabi/lib\libsysbase.a(open.o)
 .bss           0x00000000        0x0 d:/devkitpror43/devkitarm/bin/../lib/gcc/arm-none-eabi/5.3.0/../../../../arm-none-eabi/lib\libsysbase.a(open.o)
 .data          0x00000000        0x0 d:/devkitpror43/devkitarm/bin/../lib/gcc/arm-none-eabi/5.3.0/../../../../arm-none-eabi/lib\libsysbase.a(read.o)
 .bss           0x00000000        0x0 d:/devkitpror43/devkitarm/bin/../lib/gcc/arm-none-eabi/5.3.0/../../../../arm-none-eabi/lib\libsysbase.a(read.o)
 .data          0x00000000        0x0 d:/devkitpror43/devkitarm/bin/../lib/gcc/arm-none-eabi/5.3.0/../../../../arm-none-eabi/lib\libsysbase.a(sbrk.o)
 .data          0x00000000        0x0 d:/devkitpror43/devkitarm/bin/../lib/gcc/arm-none-eabi/5.3.0/../../../../arm-none-eabi/lib\libsysbase.a(write.o)
 .bss           0x00000000        0x0 d:/devkitpror43/devkitarm/bin/../lib/gcc/arm-none-eabi/5.3.0/../../../../arm-none-eabi/lib\libsysbase.a(write.o)
 .data          0x00000000        0x0 d:/devkitpror43/devkitarm/bin/../lib/gcc/arm-none-eabi/5.3.0/../../../../arm-none-eabi/lib\libsysbase.a(_exit.o)
 .bss           0x00000000        0x0 d:/devkitpror43/devkitarm/bin/../lib/gcc/arm-none-eabi/5.3.0/../../../../arm-none-eabi/lib\libsysbase.a(_exit.o)
 .text          0x00000000        0x0 d:/devkitpror43/devkitarm/bin/../lib/gcc/arm-none-eabi/5.3.0/../../../../arm-none-eabi/lib\libsysbase.a(malloc_vars.o)
 .data          0x00000000        0x0 d:/devkitpror43/devkitarm/bin/../lib/gcc/arm-none-eabi/5.3.0/../../../../arm-none-eabi/lib\libsysbase.a(malloc_vars.o)
 .data          0x00000000        0x0 d:/devkitpror43/devkitarm/bin/../lib/gcc/arm-none-eabi/5.3.0/../../../../arm-none-eabi/lib\libsysbase.a(build_argv.o)
 .bss           0x00000000        0x0 d:/devkitpror43/devkitarm/bin/../lib/gcc/arm-none-eabi/5.3.0/../../../../arm-none-eabi/lib\libsysbase.a(build_argv.o)
 .data          0x00000000        0x0 d:/devkitpror43/devkitarm/bin/../lib/gcc/arm-none-eabi/5.3.0/../../../../arm-none-eabi/lib\libsysbase.a(flock.o)
 .bss           0x00000000        0x0 d:/devkitpror43/devkitarm/bin/../lib/gcc/arm-none-eabi/5.3.0/../../../../arm-none-eabi/lib\libsysbase.a(flock.o)
 .data          0x00000000        0x0 d:/devkitpror43/devkitarm/bin/../lib/gcc/arm-none-eabi/5.3.0/../../../../arm-none-eabi/lib\libsysbase.a(syscall_support.o)
 .bss           0x00000000        0x0 d:/devkitpror43/devkitarm/bin/../lib/gcc/arm-none-eabi/5.3.0/../../../../arm-none-eabi/lib\libsysbase.a(handle_manager.o)
 .data          0x00000000        0x0 d:/devkitpror43/devkitarm/bin/../lib/gcc/arm-none-eabi/5.3.0/../../../../arm-none-eabi/lib\libsysbase.a(dirent.o)
 .bss           0x00000000        0x0 d:/devkitpror43/devkitarm/bin/../lib/gcc/arm-none-eabi/5.3.0/../../../../arm-none-eabi/lib\libsysbase.a(dirent.o)
 .data          0x00000000        0x0 d:/devkitpror43/devkitarm/bin/../lib/gcc/arm-none-eabi/5.3.0/../../../../arm-none-eabi/lib\libsysbase.a(getreent.o)
 .bss           0x00000000        0x0 d:/devkitpror43/devkitarm/bin/../lib/gcc/arm-none-eabi/5.3.0/../../../../arm-none-eabi/lib\libsysbase.a(getreent.o)
 .data          0x00000000        0x0 d:/devkitpror43/devkitarm/bin/../lib/gcc/arm-none-eabi/5.3.0\libgcc.a(_arm_truncdfsf2.o)
 .bss           0x00000000        0x0 d:/devkitpror43/devkitarm/bin/../lib/gcc/arm-none-eabi/5.3.0\libgcc.a(_arm_truncdfsf2.o)
 .data          0x00000000        0x0 d:/devkitpror43/devkitarm/bin/../lib/gcc/arm-none-eabi/5.3.0\libgcc.a(_aeabi_uldivmod.o)
 .bss           0x00000000        0x0 d:/devkitpror43/devkitarm/bin/../lib/gcc/arm-none-eabi/5.3.0\libgcc.a(_aeabi_uldivmod.o)
 .data          0x00000000        0x0 d:/devkitpror43/devkitarm/bin/../lib/gcc/arm-none-eabi/5.3.0\libgcc.a(_udivmoddi4.o)
 .bss           0x00000000        0x0 d:/devkitpror43/devkitarm/bin/../lib/gcc/arm-none-eabi/5.3.0\libgcc.a(_udivmoddi4.o)
 .data          0x00000000        0x0 d:/devkitpror43/devkitarm/bin/../lib/gcc/arm-none-eabi/5.3.0\libgcc.a(_clzdi2.o)
 .bss           0x00000000        0x0 d:/devkitpror43/devkitarm/bin/../lib/gcc/arm-none-eabi/5.3.0\libgcc.a(_clzdi2.o)
 .data          0x00000000        0x0 d:/devkitpror43/devkitarm/bin/../lib/gcc/arm-none-eabi/5.3.0\libgcc.a(_clzsi2.o)
 .bss           0x00000000        0x0 d:/devkitpror43/devkitarm/bin/../lib/gcc/arm-none-eabi/5.3.0\libgcc.a(_clzsi2.o)
 .text          0x00000000        0x0 d:/devkitpror43/devkitarm/bin/../lib/gcc/arm-none-eabi/5.3.0/crtend.o
 .data          0x00000000        0x0 d:/devkitpror43/devkitarm/bin/../lib/gcc/arm-none-eabi/5.3.0/crtend.o
 .bss           0x00000000        0x0 d:/devkitpror43/devkitarm/bin/../lib/gcc/arm-none-eabi/5.3.0/crtend.o
 .text          0x00000000        0x0 d:/devkitpror43/devkitarm/bin/../lib/gcc/arm-none-eabi/5.3.0/crtn.o
 .data          0x00000000        0x0 d:/devkitpror43/devkitarm/bin/../lib/gcc/arm-none-eabi/5.3.0/crtn.o
 .bss           0x00000000        0x0 d:/devkitpror43/devkitarm/bin/../lib/gcc/arm-none-eabi/5.3.0/crtn.o

Memory Configuration

Name             Origin             Length             Attributes
rom              0x08000000         0x02000000
gbarom           0x02180000         0x00200000
gbaew            0x02000000         0x00040000
ewram            0x02100000         0x00100000
dtcm             0x027c0000         0x00004000
vectors          0x01ff8000         0x00000200
itcm             0x01ff8200         0x00007e00
*default*        0x00000000         0xffffffff

Linker script and memory map

                0x01ff8000                __vectors_start = ORIGIN (vectors)
                0x01ff8200                __itcm_start = ORIGIN (itcm)
                0x02000000                __itcm_end = (ORIGIN (itcm) + 0x7e00)
                0x02100000                __ewram_start = ORIGIN (ewram)
                0x02200000                __ewram_end = (ORIGIN (ewram) + 0x100000)
                0x02200000                __eheap_end = (ORIGIN (ewram) + 0x100000)
                0x027c0000                __dtcm_start = ORIGIN (dtcm)
                0x027c4000                __dtcm_top = (ORIGIN (dtcm) + 0x4000)
                0x027c3ff8                __irq_flags = (__dtcm_top - 0x8)
                0x027c3ffc                __irq_vector = (__dtcm_top - 0x4)
                0x027c3df4                __sp_undef = ((__dtcm_top - 0x200) - 0xc)
                0x027c2df4                __sp_dabt = (__sp_undef - 0x1000)
                0x027c29f4                __sp_svc = (__sp_dabt - 0x400)
                0x027c25f4                __sp_swi = (__sp_svc - 0x400)
                0x027c15f4                __sp_irq = (__sp_swi - 0x1000)
                0x027c14f4                __sp_usr = (__sp_irq - 0x100)

.init           0x02100000      0x248
                0x02100000                __text_start = .
 *(.init)
 .init          0x02100000      0x230 d:/devkitpror43/devkitarm/bin/../lib/gcc/arm-none-eabi/5.3.0/../../../../arm-none-eabi/lib/ds_arm9_crt0.o
                0x02100000                _start
 .init          0x02100230        0xc d:/devkitpror43/devkitarm/bin/../lib/gcc/arm-none-eabi/5.3.0/crti.o
                0x02100230                _init
 .init          0x0210023c        0xc d:/devkitpror43/devkitarm/bin/../lib/gcc/arm-none-eabi/5.3.0/crtn.o
                0x02100248                . = ALIGN (0x4)

.plt
 *(.plt)

.text           0x02100280    0x4fce8
 *(EXCLUDE_FILE(*.itcm*) .text)
 .text          0x02100280      0x108 d:/devkitpror43/devkitarm/bin/../lib/gcc/arm-none-eabi/5.3.0/crtbegin.o
 .text          0x02100388      0x30c EEprom.o
                0x02100388                eepromInit()
                0x021003a8                eepromReset()
                0x021003dc                eepromRead(unsigned long)
                0x021004a4                eepromWrite(unsigned long, unsigned char)
 .text          0x02100694      0x380 Flash.o
                0x02100694                flashWrite(unsigned long, unsigned char)
                0x0210087c                flashInit()
                0x0210089c                flashReset()
                0x021008c0                flashSetSize(int)
                0x0210091c                flashRead(unsigned long)
                0x021009a4                flashSaveDecide(unsigned long, unsigned char)
                0x021009ec                flashDelayedWrite(unsigned long, unsigned char)
 .text          0x02100a14      0xf28 GBA.arm.o
                0x02100a14                CPUWriteBatteryFile
                0x02100b9c                CPUReadBatteryFile
                0x02100d58                CPULoadRom
                0x02100e08                CPUSwap(unsigned long*, unsigned long*)
                0x02100e1c                CPUInit
                0x02101150                CPUReset
 .text          0x0210193c      0x398 RTC.o
                0x0210193c                rtcEnable(bool)
                0x0210194c                rtcIsEnabled()
                0x0210195c                rtcRead(unsigned long)
                0x02101a14                rtcWrite(unsigned long, unsigned short)
                0x02101cb4                rtcReset()
 .text          0x02101cd4       0xec Sound.arm.o
                0x02101cd4                arm7dmareqandcheat
 .text          0x02101dc0       0x80 Sram.o
                0x02101dc0                sramWrite(unsigned long, unsigned char)
                0x02101de4                sramRead(unsigned long)
                0x02101df8                sramDelayedWrite(unsigned long, unsigned char)
 .text          0x02101e40       0x58 System.o
                0x02101e40                debuggerOutput(char*, unsigned long)
                0x02101e44                systemMessage(int, char const*, ...)
                0x02101e84                systemUpdateMotionSensor()
                0x02101e88                systemGetSensorX()
                0x02101e90                systemGetSensorY()
 .text          0x02101e98      0xc48 Util.o
                0x02101e98                utilIsSAV
                0x02101ef4                utilIsGBAImage
                0x02101fac                patchit
                0x0210253c                utilLoad
                0x021026a0                lutu16bitcnt
                0x021026e0                lutu32bitcnt
                0x02102710                clzero
                0x02102730                strtoupper
                0x02102784                strtolower
                0x021027d8                save_deciderByTitle
                0x02102814                save_decider
                0x021029b8                getVRAMHeapStart
                0x021029c4                vramHeapAlloc
                0x02102a40                vramHeapFree
                0x02102a90                reloadGBAHypervisor
 .text          0x02102ae0      0x1fc agbprint.o
                0x02102ae0                agbPrintWrite(unsigned long, unsigned short)
                0x02102b94                agbPrintReset()
                0x02102ba8                agbPrintEnable(bool)
                0x02102bb8                agbPrintIsEnabled()
                0x02102bc8                agbPrintFlush()
 .text          0x02102cdc     0x16a4 bios.o
                0x02102cdc                BIOS_ArcTan
                0x02102d74                BIOS_BitUnPack
                0x02102e8c                BIOS_GetBiosChecksum
                0x02102ea4                BIOS_BgAffineSet
                0x02103040                BIOS_CpuSet
                0x021031ac                BIOS_CpuFastSet
                0x02103290                BIOS_Diff8bitUnFilterWram
                0x02103334                BIOS_Diff8bitUnFilterVram
                0x021033fc                BIOS_Diff16bitUnFilter
                0x0210348c                BIOS_Div
                0x021034e0                BIOS_ArcTan2
                0x021035a8                BIOS_DivARM
                0x021035c0                BIOS_HuffUnComp
                0x02103898                BIOS_LZ77UnCompVram
                0x02103a7c                BIOS_LZ77UnCompWram
                0x02103bf0                BIOS_ObjAffineSet
                0x02103d00                BIOS_RegisterRamReset
                0x02103f4c                BIOS_RLUnCompVram
                0x02104098                BIOS_RLUnCompWram
                0x0210417c                BIOS_SoftReset
                0x02104274                BIOS_Sqrt
                0x0210429c                BIOS_MidiKey2Freq
                0x02104348                BIOS_SndDriverJmpTableCopy
 .text          0x02104380     0x171c cheatsys_extractor.o
                0x02104380                cheatsCheckKeys()
 .text          0x02105a9c      0x220 cpumg.o
                0x02105a9c                debugDump
                0x02105b70                failcpphandler
                0x02105bb8                gbaInit
                0x02105c9c                setGBAVectors
 .text          0x02105cbc      0x2c8 irqstuf.arm.o
                0x02105cbc                pausemenue
 .text          0x02105f84      0xaa8 mydebuger.o
                0x02105f84                wait_press_b
                0x02105fb4                userinputval(unsigned long, unsigned long)
                0x02106030                show_gba_mem()
                0x0210635c                show_nds_mem()
                0x02106600                show_mem
 .text          0x02106a2c       0x2c anothercpu.arm.o
                0x02106a2c                unknowndebugprint
 .text          0x02106a58       0x90 gba_ipc.o
                0x02106a58                gba_get_yearbytertc
                0x02106a68                gba_get_monthrtc
                0x02106a78                gba_get_dayrtc
                0x02106a88                gba_get_dayofweekrtc
                0x02106a98                gba_get_hourrtc
                0x02106aa8                gba_get_minrtc
                0x02106ab8                gba_get_secrtc
                0x02106ac8                Setarm7Sleep
                0x02106ad8                Getarm7Sleep
 .text          0x02106ae8       0x5c wifi_shared.o
                0x02106ae8                DeInitWIFI
 .text          0x02106b44     0x16d8 dswnifi_lib.o
                0x02106b44                remotePipeCleanUp
                0x02106b48                remoteTcpCleanUp
                0x02106b90                remoteTcpSend
                0x02106bb8                remoteTcpRecv
                0x02106be0                remotePipeSend
                0x02106bfc                remotePipeRecv
                0x02106c18                remotePipeInit
                0x02106c4c                remoteTcpInit
                0x02106d78                get_ewram_start
                0x02106d84                get_ewram_size
                0x02106d9c                get_itcm_start
                0x02106da8                get_itcm_size
                0x02106dc0                get_dtcm_start
                0x02106dcc                get_dtcm_size
                0x02106de4                split
                0x02106ed4                print_ip
                0x02106f20                Timer_10ms
                0x02106f34                initNiFi
                0x02106f94                doMULTIDaemonStage2
                0x021075e0                HandleSendUserspace
                0x02107604                getDSWNIFIStr
                0x02107610                connectDSWIFIAP
                0x02107648                gdbNdsStart
                0x0210767c                switch_dswnifi_mode
                0x02107774                remoteSetPort
                0x02107784                remoteSetProtocol
                0x021077f8                remoteInit
                0x02107834                remotePutPacket
                0x02107900                remoteSendSignal
                0x02107940                remoteSendStatus
                0x02107a18                remoteBinaryWrite
                0x02107ab8                remoteMemoryWrite
                0x02107b6c                remoteStepOverRange
                0x02107bb8                remoteWriteWatch
                0x02107cac                remoteReadRegisters
                0x02107d98                remoteWriteRegister
                0x02107dcc                remoteStubSignal
                0x02107dec                remoteCleanUp
                0x02107e34                debuggerReadMemory
                0x02107e54                debuggerReadHalfWord
                0x02107e78                debuggerReadByte
                0x02107e98                remoteOutput
                0x02107f34                remoteMemoryRead
                0x02107fcc                remoteStubMain
 .text          0x0210821c       0xe8 sgIP.o
                0x0210821c                sgIP_Init
                0x0210826c                sgIP_Timer
 .text          0x02108304      0x918 sgIP_ARP.o
                0x02108304                sgIP_FindArpSlot
                0x02108354                sgIP_GetArpSlot
                0x021083d4                sgIP_is_broadcast_address
                0x021083ec                sgIP_ARP_Check_isok
                0x021083f4                sgIP_ARP_Init
                0x02108420                sgIP_ARP_FlushInterface
                0x02108464                sgIP_ARP_ProcessIPFrame
                0x0210846c                sgIP_ARP_SendARPResponse
                0x021085e4                sgIP_ARP_SendGratARP
                0x02108750                sgIP_ARP_SendARPRequest
                0x021088b0                sgIP_ARP_Timer100ms
                0x02108948                sgIP_ARP_SendProtocolFrame
                0x02108ac4                sgIP_ARP_ProcessARPFrame
 .text          0x02108c1c      0xc3c sgIP_DHCP.o
                0x02108c1c                sgIP_DHCP_Init
                0x02108c7c                sgIP_DHCP_SetHostName
                0x02108ca8                sgIP_DHCP_IsDhcpIp
                0x02108cc4                sgIP_DHCP_SendDgram
                0x02108d6c                sgIP_DHCP_BeginDgram
                0x02109030                sgIP_DHCP_Terminate
                0x02109084                sgIP_DHCP_Start
                0x021091b0                sgIP_DHCP_Release
                0x021091f8                sgIP_DHCP_Update
                0x02109768                gethostname
                0x021097bc                sethostname
 .text          0x02109858      0xd1c sgIP_DNS.o
                0x0210990c                sgIP_DNS_Init
                0x0210995c                sgIP_DNS_Timer1000ms
                0x021099b4                sgIP_DNS_isipaddress
                0x02109c0c                sgIP_DNS_FindDNSRecord
                0x02109d28                sgIP_DNS_GetUnusedRecord
                0x02109df0                sgIP_DNS_GenerateHostent
                0x02109f08                sgIP_DNS_CopyAliasAt
                0x02109fa0                sgIP_DNS_gethostbyname
                0x0210a50c                inet_addr
                0x0210a530                inet_aton
                0x0210a55c                inet_ntoa
 .text          0x0210a574      0x300 sgIP_Hub.o
                0x0210a574                sgIP_Hub_Init
                0x0210a594                sgIP_Hub_AddProtocolInterface
                0x0210a604                sgIP_Hub_AddHardwareInterface
                0x0210a670                sgIP_Hub_RemoveProtocolInterface
                0x0210a69c                sgIP_Hub_RemoveHardwareInterface
                0x0210a6c8                sgIP_Hub_ReceiveHardwarePacket
                0x0210a75c                sgIP_Hub_SendProtocolPacket
                0x0210a7cc                sgIP_Hub_SendRawPacket
                0x0210a808                sgIP_Hub_IPMaxMessageSize
                0x0210a814                sgIP_Hub_GetCompatibleIP
                0x0210a82c                sgIP_Hub_GetDefaultInterface
                0x0210a844                htons
                0x0210a858                htonl
 .text          0x0210a874       0xa8 sgIP_ICMP.o
                0x0210a874                sgIP_ICMP_Init
                0x0210a878                sgIP_ICMP_ReceivePacket
 .text          0x0210a91c      0x1e4 sgIP_IP.o
                0x0210a91c                sgIP_IP_ReceivePacket
                0x0210aa14                sgIP_IP_MaxContentsSize
                0x0210aa28                sgIP_IP_RequiredHeaderSize
                0x0210aa30                sgIP_IP_SendViaIP
                0x0210aae4                sgIP_IP_GetLocalBindAddr
 .text          0x0210ab00     0x16a8 sgIP_TCP.o
                0x0210ab00                sgIP_TCP_Init
                0x0210ab4c                sgIP_TCP_support_seqhash
                0x0210abc0                sgIP_TCP_GetUnusedOutgoingPort
                0x0210ac60                sgIP_TCP_CalcChecksum
                0x0210ace8                sgIP_TCP_GenHeader
                0x0210add4                sgIP_TCP_FixChecksum
                0x0210ae68                sgIP_TCP_SendPacket
                0x0210af7c                sgIP_TCP_SendSynReply
                0x0210b064                sgIP_TCP_Timer
                0x0210b330                sgIP_TCP_AllocRecord
                0x0210b3b4                sgIP_TCP_ReceivePacket
                0x0210bb60                sgIP_TCP_FreeRecord
                0x0210bc84                sgIP_TCP_Bind
                0x0210bcd4                sgIP_TCP_Listen
                0x0210bd5c                sgIP_TCP_Accept
                0x0210be20                sgIP_TCP_Close
                0x0210be70                sgIP_TCP_Connect
                0x0210bf3c                sgIP_TCP_Send
                0x0210c07c                sgIP_TCP_Recv
 .text          0x0210c1a8      0x640 sgIP_UDP.o
                0x0210c1a8                sgIP_UDP_Init
                0x0210c1d0                sgIP_UDP_GetUnusedOutgoingPort
                0x0210c260                sgIP_UDP_CalcChecksum
                0x0210c304                sgIP_UDP_ReceivePacket
                0x0210c404                sgIP_UDP_SendPacket
                0x0210c550                sgIP_UDP_AllocRecord
                0x0210c5b4                sgIP_UDP_FreeRecord
                0x0210c63c                sgIP_UDP_Bind
                0x0210c6a0                sgIP_UDP_RecvFrom
                0x0210c7dc                sgIP_UDP_SendTo
 .text          0x0210c7e8      0x3b0 sgIP_memblock.o
                0x0210c7e8                sgIP_memblock_Init
                0x0210c7ec                sgIP_memblock_allocHW
                0x0210c830                sgIP_memblock_alloc
                0x0210c83c                sgIP_memblock_free
                0x0210c880                sgIP_memblock_exposeheader
                0x0210c8c8                sgIP_memblock_trimsize
                0x0210c920                sgIP_memblock_IPChecksum
                0x0210ca28                sgIP_memblock_CopyToLinear
                0x0210cadc                sgIP_memblock_CopyFromLinear
                0x0210cb90                sgIP_memblock_CopyBlock
 .text          0x0210cb98     0x11d0 sgIP_sockets.o
                0x0210cb98                sgIP_sockets_Init
                0x0210cbc4                spawn_socket
                0x0210cc40                kill_socket
                0x0210cc94                socket
                0x0210cd70                forceclosesocket
                0x0210cdfc                sgIP_sockets_Timer1000ms
                0x0210ce80                bind
                0x0210cf28                connect
                0x0210d054                send
                0x0210d13c                recv
                0x0210d224                sendto
                0x0210d2e0                recvfrom
                0x0210d410                listen
                0x0210d4a0                accept
                0x0210d5e0                shutdown
                0x0210d668                closesocket
                0x0210d74c                ioctl
                0x0210d860                setsockopt
                0x0210d868                getsockopt
                0x0210d870                getpeername
                0x0210d958                getsockname
                0x0210da50                gethostbyname
                0x0210da60                select
 .text          0x0210dd68     0x15c4 wifi_arm9.o
                0x0210dd68                Wifi_Interface_Init
                0x0210dddc                arm9_synctoarm7
                0x0210ddf8                sgIP_IntrWaitEvent
                0x0210ddfc                wHeapAllocInit
                0x0210de58                wHeapAlloc
                0x0210df7c                wHeapFree
                0x0210dfb0                sgIP_malloc
                0x0210dfb4                sgIP_free
                0x0210dfb8                ethhdr_print
                0x0210dfbc                erasemem
                0x0210dfd8                Wifi_CopyMacAddr
                0x0210dff4                Wifi_CmpMacAddr
                0x0210e034                Wifi_TxBufferWordsAvailable
                0x0210e064                Wifi_TxBufferWrite
                0x0210e0cc                Wifi_TransmitFunction
                0x0210e3a0                Wifi_RxRawReadPacket
                0x0210e438                Wifi_RxReadOffset
                0x0210e470                Wifi_RawTxFrame
                0x0210e58c                Wifi_RawSetPacketHandler
                0x0210e59c                Wifi_SetSyncHandler
                0x0210e5ac                Wifi_DisableWifi
                0x0210e5dc                Wifi_EnableWifi
                0x0210e60c                Wifi_SetPromiscuousMode
                0x0210e644                Wifi_ScanMode
                0x0210e674                Wifi_SetChannel
                0x0210e6bc                Wifi_GetNumAP
                0x0210e704                Wifi_GetAPData
                0x0210e7e8                Wifi_FindMatchingAP
                0x0210e938                Wifi_AutoConnect
                0x0210e970                Wifi_DisconnectAP
                0x0210e9bc                Wifi_ConnectAP
                0x0210eb34                Wifi_Init
                0x0210ebdc                Wifi_CheckInit
                0x0210ec0c                Wifi_Timer
                0x0210ec28                Timer_50ms
                0x0210ec30                Wifi_GetIP
                0x0210ec48                Wifi_GetIPInfo
                0x0210eca4                Wifi_SetIP
                0x0210ece4                Wifi_AssocStatus
                0x0210f0e8                Wifi_SetDHCP
                0x0210f0ec                Wifi_GetData
                0x0210f17c                Wifi_GetStats
                0x0210f1bc                Wifi_Sync
                0x0210f1e4                Wifi_InitDefault
                0x0210f2e8                WNifi_InitSafeDefault
 .text          0x0210f32c      0x6a4 cache.o
                0x0210f32c                _FAT_cache_constructor
                0x0210f3e8                _FAT_cache_getPage
                0x0210f544                _FAT_cache_readSectors
                0x0210f5c4                _FAT_cache_readPartialSector
                0x0210f634                _FAT_cache_readLittleEndianValue
                0x0210f6a4                _FAT_cache_writePartialSector
                0x0210f718                _FAT_cache_writeLittleEndianValue
                0x0210f794                _FAT_cache_eraseWritePartialSector
                0x0210f81c                _FAT_cache_writeSectors
                0x0210f8ac                _FAT_cache_flush
                0x0210f92c                _FAT_cache_destructor
                0x0210f97c                _FAT_cache_invalidate
 .text          0x0210f9d0     0x1940 directory.o
                0x0210fdac                _FAT_directory_entryGetCluster
                0x0210fdf0                _FAT_directory_getNextEntry
                0x02110070                _FAT_directory_getFirstEntry
                0x02110174                _FAT_directory_getRootEntry
                0x02110214                _FAT_directory_getVolumeLabel
                0x021102fc                _FAT_directory_entryFromPosition
                0x02110490                _FAT_directory_entryFromPath
                0x02110724                _FAT_directory_removeEntry
                0x02110800                _FAT_directory_addEntry
                0x02111180                _FAT_directory_chdir
                0x021111d4                _FAT_directory_entryStat
 .text          0x02111310       0x54 dldi.o
                0x02111310                dldiGetInternal
 .text          0x02111364      0xb84 fatdir.o
                0x02111364                _FAT_stat_r
                0x02111424                _FAT_link_r
                0x02111434                _FAT_unlink_r
                0x021115e8                _FAT_chdir_r
                0x0211167c                _FAT_rename_r
                0x021118b0                _FAT_mkdir_r
                0x02111bc0                _FAT_statvfs_r
                0x02111c88                _FAT_diropen_r
                0x02111d90                _FAT_dirreset_r
                0x02111dfc                _FAT_dirnext_r
                0x02111eb4                _FAT_dirclose_r
 .text          0x02111ee8     0x1b70 fatfile.o
                0x02112250                _FAT_findEntry
                0x021122a4                FAT_getAttr
                0x021122cc                FAT_setAttr
                0x02112338                _FAT_open_r
                0x0211270c                _FAT_syncToDisc
                0x02112860                _FAT_close_r
                0x0211290c                _FAT_read_r
                0x02112d58                _FAT_write_r
                0x021132c0                _FAT_seek_r
                0x02113498                _FAT_fstat_r
                0x02113564                _FAT_ftruncate_r
                0x02113740                _FAT_fsync_r
                0x021137a0                generatefilemap
                0x021139b8                getandpatchmap
 .text          0x02113a58      0x694 file_allocation_table.o
                0x02113c18                _FAT_fat_nextCluster
                0x02113db4                _FAT_fat_linkFreeCluster
                0x02113e78                _FAT_fat_linkFreeClusterCleared
                0x02113f08                _FAT_fat_clearLinks
                0x02113fb4                _FAT_fat_trimChain
                0x02114054                _FAT_fat_lastCluster
                0x021140a8                _FAT_fat_freeClusterCount
 .text          0x021140ec      0x14c filetime.o
                0x021140ec                _FAT_filetime_getTimeFromRTC
                0x0211415c                _FAT_filetime_getDateFromRTC
                0x021141d0                _FAT_filetime_to_time_t
 .text          0x02114238      0x464 libfat.o
                0x02114238                fatMount
                0x0211435c                fatMountSimple
                0x02114380                fatUnmount
                0x021143d4                fatInit
                0x02114568                fatInitDefault
                0x02114574                fatGetVolumeLabel
 .text          0x0211469c       0x10 lock.o
                0x0211469c                _FAT_lock_init
                0x021146a0                _FAT_lock_deinit
                0x021146a4                _FAT_lock
                0x021146a8                _FAT_unlock
 .text          0x021146ac      0x918 partition.o
                0x02114718                FindFirstValidPartition_buf
                0x021148f8                FindFirstValidPartition
                0x02114938                _FAT_partition_getPartitionFromPath
                0x02114950                _FAT_partition_createFSinfo
                0x02114a20                _FAT_partition_readFSinfo
                0x02114aec                _FAT_partition_constructor_buf
                0x02114e3c                _FAT_partition_constructor
                0x02114e98                _FAT_partition_writeFSinfo
                0x02114f64                _FAT_partition_destructor
 .text          0x02114fc4      0x3e0 background.o
                0x02115020                bgIsText
                0x02115030                checkIfText
                0x0211509c                bgUpdate
                0x02115198                bgInit_call
                0x02115298                bgInitSub_call
 .text          0x021153a4      0xe90 console.o
                0x021154b0                consoleGetDefault
                0x021154bc                consoleSelect
                0x021154d4                consoleDebugInit
                0x02115528                consolePrintChar
                0x021157f8                consoleLoadFont
                0x02115a38                consoleSetFont
                0x02115a70                consoleInit
                0x02115e14                consoleDemoInit
                0x02115e58                con_write
                0x021161e8                consoleClear
                0x02116200                consoleSetWindow
 .text          0x02116234      0x170 devkitpatcher.o
                0x02116234                ichflyfifoinit
                0x02116264                initSystem
                0x0211637c                triggerdmairq
 .text          0x021163a4      0x2ac interrupts.o
                0x021163a4                irqDummy
                0x021163a8                __irqSet
                0x021163e0                irqSet
                0x02116450                irqInit
                0x021164b4                irqInitHandler
                0x021164e4                irqEnable
                0x0211655c                irqDisable
                0x021165f4                irqClear
 .text          0x02116650      0x128 keys.o
                0x02116650                keysHeld
                0x02116660                keysDown
                0x02116678                scanKeys
                0x02116700                keysDownRepeat
                0x02116718                keysSetRepeat
                0x02116740                keysUp
                0x0211675c                keysCurrent
 .text          0x02116778        0x4 libnds_exit.o
                0x02116778                __libnds_exit
 .text          0x0211677c       0x3c sassert.o
                0x0211677c                __sassert
 .text          0x021167b8       0xa8 trig.o
                0x021167b8                sinLutLookup
                0x02116808                sinLerp
                0x02116850                cosLerp
 .text          0x02116860      0x1c8 video.o
                0x02116860                vramSetPrimaryBanks
                0x02116898                vramSetMainBanks
                0x0211689c                vramSetBanks_EFG
                0x021168c4                vramRestorePrimaryBanks
                0x021168d0                vramRestoreMainBanks
                0x021168dc                vramRestoreBanks_EFG
                0x021168e8                setBrightness
                0x02116938                vramDefault
 .text          0x02116a28       0x5c spinlock.o
                0x02116a28                SLasm_Acquire
                0x02116a5c                SLasm_Release
 .text          0x02116a84       0x7c dcache.o
                0x02116a84                DC_FlushAll
                0x02116ab0                DC_FlushRange
                0x02116acc                DC_InvalidateAll
                0x02116ad8                DC_InvalidateRange
                0x02116af4                DrainWriteBuffer
 .text          0x02116b00       0x28 icache.o
                0x02116b00                IC_InvalidateAll
                0x02116b0c                IC_InvalidateRange
 .text          0x02116b28      0x1b4 mpu_setup.o
                0x02116b28                __libnds_mpu_setup
                0x02116c68                memCached
                0x02116c80                memUncached
 *fill*         0x02116cdc       0x24 ff
 .text          0x02116d00     0x8000 dldi_stub.o
                0x02116d00                _io_dldi_stub
 .text          0x0211ed00       0x70 d:/devkitPror43/libnds/lib\libnds9.a(biosCalls.o)
                0x0211ed00                swiDelay
                0x0211ed04                swiWaitForVBlank
                0x0211ed08                swiSleep
                0x0211ed0c                swiChangeSoundBias
                0x0211ed10                swiDivide
                0x0211ed14                swiRemainder
                0x0211ed1a                swiDivMod
                0x0211ed26                swiCopy
                0x0211ed2a                swiFastCopy
                0x0211ed2e                swiSqrt
                0x0211ed32                swiCRC16
                0x0211ed36                swiIsDebugger
                0x0211ed3a                swiUnpackBits
                0x0211ed3e                swiDecompressLZSSWram
                0x0211ed42                swiDecompressLZSSVramNTR
                0x0211ed46                swiDecompressLZSSVramTWL
                0x0211ed4a                swiDecompressHuffman
                0x0211ed4e                swiDecompressRLEWram
                0x0211ed52                swiDecompressRLEVram
                0x0211ed56                swiWaitForIRQ
                0x0211ed5a                swiDecodeDelta8
                0x0211ed5e                swiDecodeDelta16
                0x0211ed62                swiSetHaltCR
 .text          0x0211ed70      0x114 d:/devkitpror43/devkitarm/bin/../lib/gcc/arm-none-eabi/5.3.0\libgcc.a(_udivsi3.o)
                0x0211ed70                __aeabi_uidiv
                0x0211ed70                __udivsi3
                0x0211ee64                __aeabi_uidivmod
 .text          0x0211ee84      0x148 d:/devkitpror43/devkitarm/bin/../lib/gcc/arm-none-eabi/5.3.0\libgcc.a(_divsi3.o)
                0x0211ee84                __divsi3
                0x0211ee84                __aeabi_idiv
                0x0211efac                __aeabi_idivmod
 .text          0x0211efcc        0x4 d:/devkitpror43/devkitarm/bin/../lib/gcc/arm-none-eabi/5.3.0\libgcc.a(_dvmd_tls.o)
                0x0211efcc                __aeabi_idiv0
                0x0211efcc                __aeabi_ldiv0
 .text          0x0211efd0      0x41c d:/devkitpror43/devkitarm/bin/../lib/gcc/arm-none-eabi/5.3.0\libgcc.a(_arm_addsubdf3.o)
                0x0211efd0                __aeabi_drsub
                0x0211efd8                __aeabi_dsub
                0x0211efd8                __subdf3
                0x0211efdc                __aeabi_dadd
                0x0211efdc                __adddf3
                0x0211f2ec                __floatunsidf
                0x0211f2ec                __aeabi_ui2d
                0x0211f310                __floatsidf
                0x0211f310                __aeabi_i2d
                0x0211f338                __aeabi_f2d
                0x0211f338                __extendsfdf2
                0x0211f378                __floatundidf
                0x0211f378                __aeabi_ul2d
                0x0211f38c                __floatdidf
                0x0211f38c                __aeabi_l2d
 .text          0x0211f3ec      0x49c d:/devkitpror43/devkitarm/bin/../lib/gcc/arm-none-eabi/5.3.0\libgcc.a(_arm_muldivdf3.o)
                0x0211f3ec                __aeabi_dmul
                0x0211f3ec                __muldf3
                0x0211f67c                __divdf3
                0x0211f67c                __aeabi_ddiv
 .text          0x0211f888      0x144 d:/devkitpror43/devkitarm/bin/../lib/gcc/arm-none-eabi/5.3.0\libgcc.a(_arm_cmpdf2.o)
                0x0211f888                __gtdf2
                0x0211f888                __gedf2
                0x0211f890                __ltdf2
                0x0211f890                __ledf2
                0x0211f898                __nedf2
                0x0211f898                __eqdf2
                0x0211f898                __cmpdf2
                0x0211f920                __aeabi_cdrcmple
                0x0211f93c                __aeabi_cdcmpeq
                0x0211f93c                __aeabi_cdcmple
                0x0211f954                __aeabi_dcmpeq
                0x0211f96c                __aeabi_dcmplt
                0x0211f984                __aeabi_dcmple
                0x0211f99c                __aeabi_dcmpge
                0x0211f9b4                __aeabi_dcmpgt
 .text          0x0211f9cc       0x5c d:/devkitpror43/devkitarm/bin/../lib/gcc/arm-none-eabi/5.3.0\libgcc.a(_arm_fixdfsi.o)
                0x0211f9cc                __aeabi_d2iz
                0x0211f9cc                __fixdfsi
 .text          0x0211fa28       0x54 d:/devkitpror43/devkitarm/bin/../lib/gcc/arm-none-eabi/5.3.0\libgcc.a(_arm_fixunsdfsi.o)
                0x0211fa28                __aeabi_d2uiz
                0x0211fa28                __fixunsdfsi
 .text          0x0211fa7c      0x224 d:/devkitpror43/devkitarm/bin/../lib/gcc/arm-none-eabi/5.3.0/../../../../arm-none-eabi/lib\libc.a(lib_a-strcmp.o)
                0x0211fa7c                strcmp
 .text          0x0211fca0      0x1e0 d:/devkitpror43/devkitarm/bin/../lib/gcc/arm-none-eabi/5.3.0/../../../../arm-none-eabi/lib\libsysbase.a(iosupport.o)
                0x0211fca8                setDefaultDevice
                0x0211fcc0                FindDevice
                0x0211fd88                RemoveDevice
                0x0211fdb8                AddDevice
                0x0211fe58                GetDeviceOpTab
 .text          0x0211fe80       0x88 d:/devkitpror43/devkitarm/bin/../lib/gcc/arm-none-eabi/5.3.0/../../../../arm-none-eabi/lib\libsysbase.a(close.o)
                0x0211fe80                _close_r
 .text          0x0211ff08       0x74 d:/devkitpror43/devkitarm/bin/../lib/gcc/arm-none-eabi/5.3.0/../../../../arm-none-eabi/lib\libsysbase.a(fstat.o)
                0x0211ff08                _fstat_r
 .text          0x0211ff7c       0x10 d:/devkitpror43/devkitarm/bin/../lib/gcc/arm-none-eabi/5.3.0/../../../../arm-none-eabi/lib\libsysbase.a(getpid.o)
                0x0211ff7c                _getpid_r
 .text          0x0211ff8c       0x28 d:/devkitpror43/devkitarm/bin/../lib/gcc/arm-none-eabi/5.3.0/../../../../arm-none-eabi/lib\libsysbase.a(gettod.o)
                0x0211ff8c                _gettimeofday_r
 .text          0x0211ffb4        0x8 d:/devkitpror43/devkitarm/bin/../lib/gcc/arm-none-eabi/5.3.0/../../../../arm-none-eabi/lib\libsysbase.a(isatty.o)
                0x0211ffb4                _isatty_r
 .text          0x0211ffbc       0x10 d:/devkitpror43/devkitarm/bin/../lib/gcc/arm-none-eabi/5.3.0/../../../../arm-none-eabi/lib\libsysbase.a(kill.o)
                0x0211ffbc                _kill_r
 .text          0x0211ffcc       0x7c d:/devkitpror43/devkitarm/bin/../lib/gcc/arm-none-eabi/5.3.0/../../../../arm-none-eabi/lib\libsysbase.a(lseek.o)
                0x0211ffcc                _lseek_r
 .text          0x02120048       0xd0 d:/devkitpror43/devkitarm/bin/../lib/gcc/arm-none-eabi/5.3.0/../../../../arm-none-eabi/lib\libsysbase.a(open.o)
                0x02120048                _open_r
 .text          0x02120118       0x7c d:/devkitpror43/devkitarm/bin/../lib/gcc/arm-none-eabi/5.3.0/../../../../arm-none-eabi/lib\libsysbase.a(read.o)
                0x02120118                _read_r
 .text          0x02120194       0x70 d:/devkitpror43/devkitarm/bin/../lib/gcc/arm-none-eabi/5.3.0/../../../../arm-none-eabi/lib\libsysbase.a(sbrk.o)
                0x02120194                _sbrk_r
 .text          0x02120204       0x7c d:/devkitpror43/devkitarm/bin/../lib/gcc/arm-none-eabi/5.3.0/../../../../arm-none-eabi/lib\libsysbase.a(write.o)
                0x02120204                _write_r
 .text          0x02120280       0x20 d:/devkitpror43/devkitarm/bin/../lib/gcc/arm-none-eabi/5.3.0/../../../../arm-none-eabi/lib\libsysbase.a(_exit.o)
                0x02120280                _exit
 .text          0x021202a0      0x3b0 d:/devkitpror43/devkitarm/bin/../lib/gcc/arm-none-eabi/5.3.0/../../../../arm-none-eabi/lib\libsysbase.a(chdir.o)
                0x021202a0                _concatenate_path
                0x02120464                chdir
                0x021205b0                getcwd
 .text          0x02120650       0x7c d:/devkitpror43/devkitarm/bin/../lib/gcc/arm-none-eabi/5.3.0/../../../../arm-none-eabi/lib\libsysbase.a(build_argv.o)
                0x02120650                build_argv
 .text          0x021206cc       0x28 d:/devkitpror43/devkitarm/bin/../lib/gcc/arm-none-eabi/5.3.0/../../../../arm-none-eabi/lib\libsysbase.a(flock.o)
                0x021206cc                __flockfile
                0x021206e0                __funlockfile
 .text          0x021206f4      0x100 d:/devkitpror43/devkitarm/bin/../lib/gcc/arm-none-eabi/5.3.0/../../../../arm-none-eabi/lib\libsysbase.a(syscall_support.o)
                0x021206f4                __libc_lock_init
                0x0212070c                __libc_lock_acquire
                0x02120724                __libc_lock_try_acquire
                0x02120744                __libc_lock_release
                0x0212075c                __libc_lock_close
                0x02120774                __libc_lock_init_recursive
                0x0212078c                __libc_lock_acquire_recursive
                0x021207a4                __libc_lock_try_acquire_recursive
                0x021207c4                __libc_lock_release_recursive
                0x021207dc                __libc_lock_close_recursive
 .text          0x021207f4      0x2ec d:/devkitpror43/devkitarm/bin/../lib/gcc/arm-none-eabi/5.3.0/../../../../arm-none-eabi/lib\libsysbase.a(handle_manager.o)
                0x021207f4                __free_handle
                0x02120844                __release_handle
                0x02120884                __alloc_handle
                0x02120900                __get_handle
                0x0212091c                dup
                0x021209c4                dup2
 .text          0x02120ae0      0x4cc d:/devkitpror43/devkitarm/bin/../lib/gcc/arm-none-eabi/5.3.0/../../../../arm-none-eabi/lib\libsysbase.a(dirent.o)
                0x02120b90                opendir
                0x02120c8c                closedir
                0x02120d20                readdir
                0x02120e04                readdir_r
                0x02120edc                rewinddir
                0x02120f04                seekdir
                0x02120f9c                telldir
 .text          0x02120fac       0x24 d:/devkitpror43/devkitarm/bin/../lib/gcc/arm-none-eabi/5.3.0/../../../../arm-none-eabi/lib\libsysbase.a(getreent.o)
                0x02120fac                __getreent
 .text          0x02120fd0       0xa0 d:/devkitpror43/devkitarm/bin/../lib/gcc/arm-none-eabi/5.3.0\libgcc.a(_arm_truncdfsf2.o)
                0x02120fd0                __truncdfsf2
                0x02120fd0                __aeabi_d2f
 .text          0x02121070       0x3c d:/devkitpror43/devkitarm/bin/../lib/gcc/arm-none-eabi/5.3.0\libgcc.a(_aeabi_uldivmod.o)
                0x02121070                __aeabi_uldivmod
 .text          0x021210ac      0x12c d:/devkitpror43/devkitarm/bin/../lib/gcc/arm-none-eabi/5.3.0\libgcc.a(_udivmoddi4.o)
                0x021210ac                __udivmoddi4
 .text          0x021211d8       0x28 d:/devkitpror43/devkitarm/bin/../lib/gcc/arm-none-eabi/5.3.0\libgcc.a(_clzdi2.o)
                0x021211d8                __clzdi2
 .text          0x02121200       0x48 d:/devkitpror43/devkitarm/bin/../lib/gcc/arm-none-eabi/5.3.0\libgcc.a(_clzsi2.o)
                0x02121200                __clzsi2
 *(.text.*)
 .text.startup  0x02121248       0x40 GBA.arm.o
 .text.unlikely
                0x02121288       0x3c RTC.o
 .text.startup  0x021212c4      0x134 main.o
                0x021212c4                main
 .text.hot      0x021213f8     0x9b50 anothercpu.arm.o
                0x021213f8                emuInstrARM
 .text.pow      0x0212af48      0x528 d:/devkitpror43/devkitarm/bin/../lib/gcc/arm-none-eabi/5.3.0/../../../../arm-none-eabi/lib\libm.a(lib_a-w_pow.o)
                0x0212af48                pow
 .text.sqrt     0x0212b470      0x134 d:/devkitpror43/devkitarm/bin/../lib/gcc/arm-none-eabi/5.3.0/../../../../arm-none-eabi/lib\libm.a(lib_a-w_sqrt.o)
                0x0212b470                sqrt
 *fill*         0x0212b5a4        0x4 ff
 .text.__ieee754_pow
                0x0212b5a8      0xfe8 d:/devkitpror43/devkitarm/bin/../lib/gcc/arm-none-eabi/5.3.0/../../../../arm-none-eabi/lib\libm.a(lib_a-e_pow.o)
                0x0212b5a8                __ieee754_pow
 .text.__ieee754_sqrt
                0x0212c590      0x234 d:/devkitpror43/devkitarm/bin/../lib/gcc/arm-none-eabi/5.3.0/../../../../arm-none-eabi/lib\libm.a(lib_a-e_sqrt.o)
                0x0212c590                __ieee754_sqrt
 .text.fabs     0x0212c7c4        0x8 d:/devkitpror43/devkitarm/bin/../lib/gcc/arm-none-eabi/5.3.0/../../../../arm-none-eabi/lib\libm.a(lib_a-s_fabs.o)
                0x0212c7c4                fabs
 .text.finite   0x0212c7cc       0x10 d:/devkitpror43/devkitarm/bin/../lib/gcc/arm-none-eabi/5.3.0/../../../../arm-none-eabi/lib\libm.a(lib_a-s_finite.o)
                0x0212c7cc                finite
 .text.__fpclassifyd
                0x0212c7dc       0x6c d:/devkitpror43/devkitarm/bin/../lib/gcc/arm-none-eabi/5.3.0/../../../../arm-none-eabi/lib\libm.a(lib_a-s_fpclassify.o)
                0x0212c7dc                __fpclassifyd
 .text.matherr  0x0212c848        0x8 d:/devkitpror43/devkitarm/bin/../lib/gcc/arm-none-eabi/5.3.0/../../../../arm-none-eabi/lib\libm.a(lib_a-s_matherr.o)
                0x0212c848                matherr
 .text.nan      0x0212c850       0x10 d:/devkitpror43/devkitarm/bin/../lib/gcc/arm-none-eabi/5.3.0/../../../../arm-none-eabi/lib\libm.a(lib_a-s_nan.o)
                0x0212c850                nan
 .text.rint     0x0212c860      0x194 d:/devkitpror43/devkitarm/bin/../lib/gcc/arm-none-eabi/5.3.0/../../../../arm-none-eabi/lib\libm.a(lib_a-s_rint.o)
                0x0212c860                rint
 *fill*         0x0212c9f4        0x4 ff
 .text.scalbn   0x0212c9f8      0x190 d:/devkitpror43/devkitarm/bin/../lib/gcc/arm-none-eabi/5.3.0/../../../../arm-none-eabi/lib\libm.a(lib_a-s_scalbn.o)
                0x0212c9f8                scalbn
 .text.copysign
                0x0212cb88       0x10 d:/devkitpror43/devkitarm/bin/../lib/gcc/arm-none-eabi/5.3.0/../../../../arm-none-eabi/lib\libm.a(lib_a-s_copysign.o)
                0x0212cb88                copysign
 .text.__assert_func
                0x0212cb98       0x58 d:/devkitpror43/devkitarm/bin/../lib/gcc/arm-none-eabi/5.3.0/../../../../arm-none-eabi/lib\libc.a(lib_a-assert.o)
                0x0212cb98                __assert_func
 .text.calloc   0x0212cbf0       0x24 d:/devkitpror43/devkitarm/bin/../lib/gcc/arm-none-eabi/5.3.0/../../../../arm-none-eabi/lib\libc.a(lib_a-calloc.o)
                0x0212cbf0                calloc
 .text._calloc_r
                0x0212cc14       0x98 d:/devkitpror43/devkitarm/bin/../lib/gcc/arm-none-eabi/5.3.0/../../../../arm-none-eabi/lib\libc.a(lib_a-callocr.o)
                0x0212cc14                _calloc_r
 .text.__errno  0x0212ccac       0x10 d:/devkitpror43/devkitarm/bin/../lib/gcc/arm-none-eabi/5.3.0/../../../../arm-none-eabi/lib\libc.a(lib_a-errno.o)
                0x0212ccac                __errno
 .text._fclose_r
                0x0212ccbc      0x128 d:/devkitpror43/devkitarm/bin/../lib/gcc/arm-none-eabi/5.3.0/../../../../arm-none-eabi/lib\libc.a(lib_a-fclose.o)
                0x0212ccbc                _fclose_r
 .text.fclose   0x0212cde4       0x18 d:/devkitpror43/devkitarm/bin/../lib/gcc/arm-none-eabi/5.3.0/../../../../arm-none-eabi/lib\libc.a(lib_a-fclose.o)
                0x0212cde4                fclose
 .text.__sflush_r
                0x0212cdfc      0x22c d:/devkitpror43/devkitarm/bin/../lib/gcc/arm-none-eabi/5.3.0/../../../../arm-none-eabi/lib\libc.a(lib_a-fflush.o)
                0x0212cdfc                __sflush_r
 .text._fflush_r
                0x0212d028       0x98 d:/devkitpror43/devkitarm/bin/../lib/gcc/arm-none-eabi/5.3.0/../../../../arm-none-eabi/lib\libc.a(lib_a-fflush.o)
                0x0212d028                _fflush_r
 .text.fflush   0x0212d0c0       0x3c d:/devkitpror43/devkitarm/bin/../lib/gcc/arm-none-eabi/5.3.0/../../../../arm-none-eabi/lib\libc.a(lib_a-fflush.o)
                0x0212d0c0                fflush
 .text._cleanup_r
                0x0212d0fc       0x18 d:/devkitpror43/devkitarm/bin/../lib/gcc/arm-none-eabi/5.3.0/../../../../arm-none-eabi/lib\libc.a(lib_a-findfp.o)
                0x0212d0fc                _cleanup_r
 .text.std.isra.0
                0x0212d114       0x84 d:/devkitpror43/devkitarm/bin/../lib/gcc/arm-none-eabi/5.3.0/../../../../arm-none-eabi/lib\libc.a(lib_a-findfp.o)
 .text.__sfmoreglue
                0x0212d198       0x4c d:/devkitpror43/devkitarm/bin/../lib/gcc/arm-none-eabi/5.3.0/../../../../arm-none-eabi/lib\libc.a(lib_a-findfp.o)
                0x0212d198                __sfmoreglue
 .text.__sinit  0x0212d1e4       0x94 d:/devkitpror43/devkitarm/bin/../lib/gcc/arm-none-eabi/5.3.0/../../../../arm-none-eabi/lib\libc.a(lib_a-findfp.o)
                0x0212d1e4                __sinit
 .text.__sfp    0x0212d278      0x124 d:/devkitpror43/devkitarm/bin/../lib/gcc/arm-none-eabi/5.3.0/../../../../arm-none-eabi/lib\libc.a(lib_a-findfp.o)
                0x0212d278                __sfp
 .text.__sfp_lock_acquire
                0x0212d39c       0x18 d:/devkitpror43/devkitarm/bin/../lib/gcc/arm-none-eabi/5.3.0/../../../../arm-none-eabi/lib\libc.a(lib_a-findfp.o)
                0x0212d39c                __sfp_lock_acquire
 .text.__sfp_lock_release
                0x0212d3b4       0x18 d:/devkitpror43/devkitarm/bin/../lib/gcc/arm-none-eabi/5.3.0/../../../../arm-none-eabi/lib\libc.a(lib_a-findfp.o)
                0x0212d3b4                __sfp_lock_release
 .text.fiprintf
                0x0212d3cc       0x3c d:/devkitpror43/devkitarm/bin/../lib/gcc/arm-none-eabi/5.3.0/../../../../arm-none-eabi/lib\libc.a(lib_a-fiprintf.o)
                0x0212d3cc                fiprintf
 .text._fopen_r
                0x0212d408      0x148 d:/devkitpror43/devkitarm/bin/../lib/gcc/arm-none-eabi/5.3.0/../../../../arm-none-eabi/lib\libc.a(lib_a-fopen.o)
                0x0212d408                _fopen_r
 .text.fopen    0x0212d550       0x20 d:/devkitpror43/devkitarm/bin/../lib/gcc/arm-none-eabi/5.3.0/../../../../arm-none-eabi/lib\libc.a(lib_a-fopen.o)
                0x0212d550                fopen
 .text._fputs_r
                0x0212d570       0xf0 d:/devkitpror43/devkitarm/bin/../lib/gcc/arm-none-eabi/5.3.0/../../../../arm-none-eabi/lib\libc.a(lib_a-fputs.o)
                0x0212d570                _fputs_r
 .text.fputs    0x0212d660       0x20 d:/devkitpror43/devkitarm/bin/../lib/gcc/arm-none-eabi/5.3.0/../../../../arm-none-eabi/lib\libc.a(lib_a-fputs.o)
                0x0212d660                fputs
 .text._fread_r
                0x0212d680      0x2d8 d:/devkitpror43/devkitarm/bin/../lib/gcc/arm-none-eabi/5.3.0/../../../../arm-none-eabi/lib\libc.a(lib_a-fread.o)
                0x0212d680                _fread_r
 .text.fread    0x0212d958       0x3c d:/devkitpror43/devkitarm/bin/../lib/gcc/arm-none-eabi/5.3.0/../../../../arm-none-eabi/lib\libc.a(lib_a-fread.o)
                0x0212d958                fread
 .text._malloc_trim_r
                0x0212d994      0x100 d:/devkitpror43/devkitarm/bin/../lib/gcc/arm-none-eabi/5.3.0/../../../../arm-none-eabi/lib\libc.a(lib_a-freer.o)
                0x0212d994                _malloc_trim_r
 .text._free_r  0x0212da94      0x2ec d:/devkitpror43/devkitarm/bin/../lib/gcc/arm-none-eabi/5.3.0/../../../../arm-none-eabi/lib\libc.a(lib_a-freer.o)
                0x0212da94                _free_r
 .text._fseek_r
                0x0212dd80       0x10 d:/devkitpror43/devkitarm/bin/../lib/gcc/arm-none-eabi/5.3.0/../../../../arm-none-eabi/lib\libc.a(lib_a-fseek.o)
                0x0212dd80                _fseek_r
 .text.fseek    0x0212dd90       0x2c d:/devkitpror43/devkitarm/bin/../lib/gcc/arm-none-eabi/5.3.0/../../../../arm-none-eabi/lib\libc.a(lib_a-fseek.o)
                0x0212dd90                fseek
 .text._fseeko_r
                0x0212ddbc      0x4f0 d:/devkitpror43/devkitarm/bin/../lib/gcc/arm-none-eabi/5.3.0/../../../../arm-none-eabi/lib\libc.a(lib_a-fseeko.o)
                0x0212ddbc                _fseeko_r
 .text.ftell    0x0212e2ac       0x1c d:/devkitpror43/devkitarm/bin/../lib/gcc/arm-none-eabi/5.3.0/../../../../arm-none-eabi/lib\libc.a(lib_a-ftell.o)
                0x0212e2ac                ftell
 .text._ftello_r
                0x0212e2c8      0x16c d:/devkitpror43/devkitarm/bin/../lib/gcc/arm-none-eabi/5.3.0/../../../../arm-none-eabi/lib\libc.a(lib_a-ftello.o)
                0x0212e2c8                _ftello_r
 .text.__sfvwrite_r
                0x0212e434      0x4c8 d:/devkitpror43/devkitarm/bin/../lib/gcc/arm-none-eabi/5.3.0/../../../../arm-none-eabi/lib\libc.a(lib_a-fvwrite.o)
                0x0212e434                __sfvwrite_r
 .text._fwalk   0x0212e8fc       0x84 d:/devkitpror43/devkitarm/bin/../lib/gcc/arm-none-eabi/5.3.0/../../../../arm-none-eabi/lib\libc.a(lib_a-fwalk.o)
                0x0212e8fc                _fwalk
 .text._fwalk_reent
                0x0212e980       0x8c d:/devkitpror43/devkitarm/bin/../lib/gcc/arm-none-eabi/5.3.0/../../../../arm-none-eabi/lib\libc.a(lib_a-fwalk.o)
                0x0212e980                _fwalk_reent
 .text._fwrite_r
                0x0212ea0c      0x120 d:/devkitpror43/devkitarm/bin/../lib/gcc/arm-none-eabi/5.3.0/../../../../arm-none-eabi/lib\libc.a(lib_a-fwrite.o)
                0x0212ea0c                _fwrite_r
 .text.fwrite   0x0212eb2c       0x3c d:/devkitpror43/devkitarm/bin/../lib/gcc/arm-none-eabi/5.3.0/../../../../arm-none-eabi/lib\libc.a(lib_a-fwrite.o)
                0x0212eb2c                fwrite
 .text.__libc_init_array
                0x0212eb68       0x80 d:/devkitpror43/devkitarm/bin/../lib/gcc/arm-none-eabi/5.3.0/../../../../arm-none-eabi/lib\libc.a(lib_a-init.o)
                0x0212eb68                __libc_init_array
 .text.iprintf  0x0212ebe8       0x38 d:/devkitpror43/devkitarm/bin/../lib/gcc/arm-none-eabi/5.3.0/../../../../arm-none-eabi/lib\libc.a(lib_a-iprintf.o)
                0x0212ebe8                iprintf
 .text.localtime_r
                0x0212ec20      0x388 d:/devkitpror43/devkitarm/bin/../lib/gcc/arm-none-eabi/5.3.0/../../../../arm-none-eabi/lib\libc.a(lib_a-lcltime_r.o)
                0x0212ec20                localtime_r
 .text.__locale_charset
                0x0212efa8        0xc d:/devkitpror43/devkitarm/bin/../lib/gcc/arm-none-eabi/5.3.0/../../../../arm-none-eabi/lib\libc.a(lib_a-locale.o)
                0x0212efa8                __locale_charset
 .text.__locale_mb_cur_max
                0x0212efb4       0x10 d:/devkitpror43/devkitarm/bin/../lib/gcc/arm-none-eabi/5.3.0/../../../../arm-none-eabi/lib\libc.a(lib_a-locale.o)
                0x0212efb4                __locale_mb_cur_max
 .text._localeconv_r
                0x0212efc4        0xc d:/devkitpror43/devkitarm/bin/../lib/gcc/arm-none-eabi/5.3.0/../../../../arm-none-eabi/lib\libc.a(lib_a-locale.o)
                0x0212efc4                _localeconv_r
 .text.__smakebuf_r
                0x0212efd0      0x168 d:/devkitpror43/devkitarm/bin/../lib/gcc/arm-none-eabi/5.3.0/../../../../arm-none-eabi/lib\libc.a(lib_a-makebuf.o)
                0x0212efd0                __smakebuf_r
 .text.malloc   0x0212f138       0x1c d:/devkitpror43/devkitarm/bin/../lib/gcc/arm-none-eabi/5.3.0/../../../../arm-none-eabi/lib\libc.a(lib_a-malloc.o)
                0x0212f138                malloc
 .text.free     0x0212f154       0x1c d:/devkitpror43/devkitarm/bin/../lib/gcc/arm-none-eabi/5.3.0/../../../../arm-none-eabi/lib\libc.a(lib_a-malloc.o)
                0x0212f154                free
 .text._malloc_r
                0x0212f170      0x7a8 d:/devkitpror43/devkitarm/bin/../lib/gcc/arm-none-eabi/5.3.0/../../../../arm-none-eabi/lib\libc.a(lib_a-mallocr.o)
                0x0212f170                _malloc_r
 .text._mbrtowc_r
                0x0212f918       0xa4 d:/devkitpror43/devkitarm/bin/../lib/gcc/arm-none-eabi/5.3.0/../../../../arm-none-eabi/lib\libc.a(lib_a-mbrtowc.o)
                0x0212f918                _mbrtowc_r
 .text.mbrtowc  0x0212f9bc       0xa8 d:/devkitpror43/devkitarm/bin/../lib/gcc/arm-none-eabi/5.3.0/../../../../arm-none-eabi/lib\libc.a(lib_a-mbrtowc.o)
                0x0212f9bc                mbrtowc
 .text.mbsrtowcs
                0x0212fa64       0x3c d:/devkitpror43/devkitarm/bin/../lib/gcc/arm-none-eabi/5.3.0/../../../../arm-none-eabi/lib\libc.a(lib_a-mbsrtowcs.o)
                0x0212fa64                mbsrtowcs
 .text.__utf8_mbtowc
                0x0212faa0      0x304 d:/devkitpror43/devkitarm/bin/../lib/gcc/arm-none-eabi/5.3.0/../../../../arm-none-eabi/lib\libc.a(lib_a-mbtowc_r.o)
                0x0212faa0                __utf8_mbtowc
 .text.memchr   0x0212fda4      0x10c d:/devkitpror43/devkitarm/bin/../lib/gcc/arm-none-eabi/5.3.0/../../../../arm-none-eabi/lib\libc.a(lib_a-memchr.o)
                0x0212fda4                memchr
 .text.memcmp   0x0212feb0       0xb0 d:/devkitpror43/devkitarm/bin/../lib/gcc/arm-none-eabi/5.3.0/../../../../arm-none-eabi/lib\libc.a(lib_a-memcmp.o)
                0x0212feb0                memcmp
 .text.memcpy   0x0212ff60       0xf0 d:/devkitpror43/devkitarm/bin/../lib/gcc/arm-none-eabi/5.3.0/../../../../arm-none-eabi/lib\libc.a(lib_a-memcpy.o)
                0x0212ff60                memcpy
 .text.memmove  0x02130050      0x12c d:/devkitpror43/devkitarm/bin/../lib/gcc/arm-none-eabi/5.3.0/../../../../arm-none-eabi/lib\libc.a(lib_a-memmove.o)
                0x02130050                memmove
 .text.memset   0x0213017c       0xf4 d:/devkitpror43/devkitarm/bin/../lib/gcc/arm-none-eabi/5.3.0/../../../../arm-none-eabi/lib\libc.a(lib_a-memset.o)
                0x0213017c                memset
 .text.validate_structure
                0x02130270      0x340 d:/devkitpror43/devkitarm/bin/../lib/gcc/arm-none-eabi/5.3.0/../../../../arm-none-eabi/lib\libc.a(lib_a-mktime.o)
 .text.mktime   0x021305b0      0x504 d:/devkitpror43/devkitarm/bin/../lib/gcc/arm-none-eabi/5.3.0/../../../../arm-none-eabi/lib\libc.a(lib_a-mktime.o)
                0x021305b0                mktime
 .text.__malloc_lock
                0x02130ab4       0x18 d:/devkitpror43/devkitarm/bin/../lib/gcc/arm-none-eabi/5.3.0/../../../../arm-none-eabi/lib\libc.a(lib_a-mlock.o)
                0x02130ab4                __malloc_lock
 .text.__malloc_unlock
                0x02130acc       0x18 d:/devkitpror43/devkitarm/bin/../lib/gcc/arm-none-eabi/5.3.0/../../../../arm-none-eabi/lib\libc.a(lib_a-mlock.o)
                0x02130acc                __malloc_unlock
 .text.printf   0x02130ae4       0x38 d:/devkitpror43/devkitarm/bin/../lib/gcc/arm-none-eabi/5.3.0/../../../../arm-none-eabi/lib\libc.a(lib_a-printf.o)
                0x02130ae4                printf
 .text._realloc_r
                0x02130b1c      0x580 d:/devkitpror43/devkitarm/bin/../lib/gcc/arm-none-eabi/5.3.0/../../../../arm-none-eabi/lib\libc.a(lib_a-reallocr.o)
                0x02130b1c                _realloc_r
 .text.lflush   0x0213109c       0x28 d:/devkitpror43/devkitarm/bin/../lib/gcc/arm-none-eabi/5.3.0/../../../../arm-none-eabi/lib\libc.a(lib_a-refill.o)
 .text.__srefill_r
                0x021310c4      0x1e0 d:/devkitpror43/devkitarm/bin/../lib/gcc/arm-none-eabi/5.3.0/../../../../arm-none-eabi/lib\libc.a(lib_a-refill.o)
                0x021310c4                __srefill_r
 .text.setvbuf  0x021312a4      0x200 d:/devkitpror43/devkitarm/bin/../lib/gcc/arm-none-eabi/5.3.0/../../../../arm-none-eabi/lib\libc.a(lib_a-setvbuf.o)
                0x021312a4                setvbuf
 .text.siscanf  0x021314a4       0x74 d:/devkitpror43/devkitarm/bin/../lib/gcc/arm-none-eabi/5.3.0/../../../../arm-none-eabi/lib\libc.a(lib_a-siscanf.o)
                0x021314a4                siscanf
 .text.sprintf  0x02131518       0x68 d:/devkitpror43/devkitarm/bin/../lib/gcc/arm-none-eabi/5.3.0/../../../../arm-none-eabi/lib\libc.a(lib_a-sprintf.o)
                0x02131518                sprintf
 .text.sscanf   0x02131580       0x74 d:/devkitpror43/devkitarm/bin/../lib/gcc/arm-none-eabi/5.3.0/../../../../arm-none-eabi/lib\libc.a(lib_a-sscanf.o)
                0x02131580                sscanf
 .text.__sread  0x021315f4       0x34 d:/devkitpror43/devkitarm/bin/../lib/gcc/arm-none-eabi/5.3.0/../../../../arm-none-eabi/lib\libc.a(lib_a-stdio.o)
                0x021315f4                __sread
 .text.__seofread
                0x02131628        0x8 d:/devkitpror43/devkitarm/bin/../lib/gcc/arm-none-eabi/5.3.0/../../../../arm-none-eabi/lib\libc.a(lib_a-stdio.o)
                0x02131628                __seofread
 .text.__swrite
                0x02131630       0x58 d:/devkitpror43/devkitarm/bin/../lib/gcc/arm-none-eabi/5.3.0/../../../../arm-none-eabi/lib\libc.a(lib_a-stdio.o)
                0x02131630                __swrite
 .text.__sseek  0x02131688       0x30 d:/devkitpror43/devkitarm/bin/../lib/gcc/arm-none-eabi/5.3.0/../../../../arm-none-eabi/lib\libc.a(lib_a-stdio.o)
                0x02131688                __sseek
 .text.__sclose
                0x021316b8       0x14 d:/devkitpror43/devkitarm/bin/../lib/gcc/arm-none-eabi/5.3.0/../../../../arm-none-eabi/lib\libc.a(lib_a-stdio.o)
                0x021316b8                __sclose
 .text.strcasecmp
                0x021316cc       0x74 d:/devkitpror43/devkitarm/bin/../lib/gcc/arm-none-eabi/5.3.0/../../../../arm-none-eabi/lib\libc.a(lib_a-strcasecmp.o)
                0x021316cc                strcasecmp
 .text.strcat   0x02131740       0x84 d:/devkitpror43/devkitarm/bin/../lib/gcc/arm-none-eabi/5.3.0/../../../../arm-none-eabi/lib\libc.a(lib_a-strcat.o)
                0x02131740                strcat
 .text.strchr   0x021317c4      0x160 d:/devkitpror43/devkitarm/bin/../lib/gcc/arm-none-eabi/5.3.0/../../../../arm-none-eabi/lib\libc.a(lib_a-strchr.o)
                0x021317c4                strchr
 .text.strcpy   0x02131924       0xf0 d:/devkitpror43/devkitarm/bin/../lib/gcc/arm-none-eabi/5.3.0/../../../../arm-none-eabi/lib\libc.a(lib_a-strcpy.o)
                0x02131924                strcpy
 .text.strlen   0x02131a14       0x60 d:/devkitpror43/devkitarm/bin/../lib/gcc/arm-none-eabi/5.3.0/../../../../arm-none-eabi/lib\libc.a(lib_a-strlen.o)
                0x02131a14                strlen
 .text.strncasecmp
                0x02131a74       0x94 d:/devkitpror43/devkitarm/bin/../lib/gcc/arm-none-eabi/5.3.0/../../../../arm-none-eabi/lib\libc.a(lib_a-strncasecmp.o)
                0x02131a74                strncasecmp
 .text.strncmp  0x02131b08      0x124 d:/devkitpror43/devkitarm/bin/../lib/gcc/arm-none-eabi/5.3.0/../../../../arm-none-eabi/lib\libc.a(lib_a-strncmp.o)
                0x02131b08                strncmp
 .text.strncpy  0x02131c2c       0xe4 d:/devkitpror43/devkitarm/bin/../lib/gcc/arm-none-eabi/5.3.0/../../../../arm-none-eabi/lib\libc.a(lib_a-strncpy.o)
                0x02131c2c                strncpy
 .text.strnlen  0x02131d10       0x5c d:/devkitpror43/devkitarm/bin/../lib/gcc/arm-none-eabi/5.3.0/../../../../arm-none-eabi/lib\libc.a(lib_a-strnlen.o)
                0x02131d10                strnlen
 .text.strpbrk  0x02131d6c       0x7c d:/devkitpror43/devkitarm/bin/../lib/gcc/arm-none-eabi/5.3.0/../../../../arm-none-eabi/lib\libc.a(lib_a-strpbrk.o)
                0x02131d6c                strpbrk
 .text.strrchr  0x02131de8       0x54 d:/devkitpror43/devkitarm/bin/../lib/gcc/arm-none-eabi/5.3.0/../../../../arm-none-eabi/lib\libc.a(lib_a-strrchr.o)
                0x02131de8                strrchr
 .text._strtol_r
                0x02131e3c      0x1d4 d:/devkitpror43/devkitarm/bin/../lib/gcc/arm-none-eabi/5.3.0/../../../../arm-none-eabi/lib\libc.a(lib_a-strtol.o)
                0x02131e3c                _strtol_r
 .text._sungetc_r
                0x02132010      0x100 d:/devkitpror43/devkitarm/bin/../lib/gcc/arm-none-eabi/5.3.0/../../../../arm-none-eabi/lib\libc.a(lib_a-svfiscanf.o)
                0x02132010                _sungetc_r
 .text.__ssrefill_r
                0x02132110       0x6c d:/devkitpror43/devkitarm/bin/../lib/gcc/arm-none-eabi/5.3.0/../../../../arm-none-eabi/lib\libc.a(lib_a-svfiscanf.o)
                0x02132110                __ssrefill_r
 .text._sfread_r
                0x0213217c       0xdc d:/devkitpror43/devkitarm/bin/../lib/gcc/arm-none-eabi/5.3.0/../../../../arm-none-eabi/lib\libc.a(lib_a-svfiscanf.o)
                0x0213217c                _sfread_r
 .text.__ssvfiscanf_r
                0x02132258     0x21f0 d:/devkitpror43/devkitarm/bin/../lib/gcc/arm-none-eabi/5.3.0/../../../../arm-none-eabi/lib\libc.a(lib_a-svfiscanf.o)
                0x02132258                __ssvfiscanf_r
 .text.get_arg  0x02134448     0x1630 d:/devkitpror43/devkitarm/bin/../lib/gcc/arm-none-eabi/5.3.0/../../../../arm-none-eabi/lib\libc.a(lib_a-svfprintf.o)
 .text._svfprintf_r
                0x02135a78     0x46d8 d:/devkitpror43/devkitarm/bin/../lib/gcc/arm-none-eabi/5.3.0/../../../../arm-none-eabi/lib\libc.a(lib_a-svfprintf.o)
                0x02135a78                _svfprintf_r
 .text.__ssvfscanf_r
                0x0213a150     0x2c28 d:/devkitpror43/devkitarm/bin/../lib/gcc/arm-none-eabi/5.3.0/../../../../arm-none-eabi/lib\libc.a(lib_a-svfscanf.o)
                0x0213a150                __ssvfscanf_r
 .text.close    0x0213cd78       0x1c d:/devkitpror43/devkitarm/bin/../lib/gcc/arm-none-eabi/5.3.0/../../../../arm-none-eabi/lib\libc.a(lib_a-sysclose.o)
                0x0213cd78                close
 .text.read     0x0213cd94       0x2c d:/devkitpror43/devkitarm/bin/../lib/gcc/arm-none-eabi/5.3.0/../../../../arm-none-eabi/lib\libc.a(lib_a-sysread.o)
                0x0213cd94                read
 .text.sbrk     0x0213cdc0       0x1c d:/devkitpror43/devkitarm/bin/../lib/gcc/arm-none-eabi/5.3.0/../../../../arm-none-eabi/lib\libc.a(lib_a-syssbrk.o)
                0x0213cdc0                sbrk
 .text.write    0x0213cddc       0x2c d:/devkitpror43/devkitarm/bin/../lib/gcc/arm-none-eabi/5.3.0/../../../../arm-none-eabi/lib\libc.a(lib_a-syswrite.o)
                0x0213cddc                write
 .text.time     0x0213ce08       0x44 d:/devkitpror43/devkitarm/bin/../lib/gcc/arm-none-eabi/5.3.0/../../../../arm-none-eabi/lib\libc.a(lib_a-time.o)
                0x0213ce08                time
 .text.tolower  0x0213ce4c       0x24 d:/devkitpror43/devkitarm/bin/../lib/gcc/arm-none-eabi/5.3.0/../../../../arm-none-eabi/lib\libc.a(lib_a-tolower.o)
                0x0213ce4c                tolower
 .text.toupper  0x0213ce70       0x24 d:/devkitpror43/devkitarm/bin/../lib/gcc/arm-none-eabi/5.3.0/../../../../arm-none-eabi/lib\libc.a(lib_a-toupper.o)
                0x0213ce70                toupper
 .text.towlower
                0x0213ce94      0xf14 d:/devkitpror43/devkitarm/bin/../lib/gcc/arm-none-eabi/5.3.0/../../../../arm-none-eabi/lib\libc.a(lib_a-towlower.o)
                0x0213ce94                towlower
 .text.towupper
                0x0213dda8      0xdfc d:/devkitpror43/devkitarm/bin/../lib/gcc/arm-none-eabi/5.3.0/../../../../arm-none-eabi/lib\libc.a(lib_a-towupper.o)
                0x0213dda8                towupper
 .text.__tzcalc_limits
                0x0213eba4      0x238 d:/devkitpror43/devkitarm/bin/../lib/gcc/arm-none-eabi/5.3.0/../../../../arm-none-eabi/lib\libc.a(lib_a-tzcalc_limits.o)
                0x0213eba4                __tzcalc_limits
 .text.__tz_lock
                0x0213eddc       0x18 d:/devkitpror43/devkitarm/bin/../lib/gcc/arm-none-eabi/5.3.0/../../../../arm-none-eabi/lib\libc.a(lib_a-tzlock.o)
                0x0213eddc                __tz_lock
 .text.__tz_unlock
                0x0213edf4       0x18 d:/devkitpror43/devkitarm/bin/../lib/gcc/arm-none-eabi/5.3.0/../../../../arm-none-eabi/lib\libc.a(lib_a-tzlock.o)
                0x0213edf4                __tz_unlock
 .text.__submore
                0x0213ee0c       0xb0 d:/devkitpror43/devkitarm/bin/../lib/gcc/arm-none-eabi/5.3.0/../../../../arm-none-eabi/lib\libc.a(lib_a-ungetc.o)
                0x0213ee0c                __submore
 .text.get_arg  0x0213eebc     0x1630 d:/devkitpror43/devkitarm/bin/../lib/gcc/arm-none-eabi/5.3.0/../../../../arm-none-eabi/lib\libc.a(lib_a-vfiprintf.o)
 .text.__sprint_r.part.0
                0x021404ec       0xac d:/devkitpror43/devkitarm/bin/../lib/gcc/arm-none-eabi/5.3.0/../../../../arm-none-eabi/lib\libc.a(lib_a-vfiprintf.o)
 .text.__sprint_r
                0x02140598       0x18 d:/devkitpror43/devkitarm/bin/../lib/gcc/arm-none-eabi/5.3.0/../../../../arm-none-eabi/lib\libc.a(lib_a-vfiprintf.o)
                0x02140598                __sprint_r
 .text._vfiprintf_r
                0x021405b0     0x33a4 d:/devkitpror43/devkitarm/bin/../lib/gcc/arm-none-eabi/5.3.0/../../../../arm-none-eabi/lib\libc.a(lib_a-vfiprintf.o)
                0x021405b0                _vfiprintf_r
 .text.__sbprintf
                0x02143954       0xd0 d:/devkitpror43/devkitarm/bin/../lib/gcc/arm-none-eabi/5.3.0/../../../../arm-none-eabi/lib\libc.a(lib_a-vfiprintf.o)
 .text.get_arg  0x02143a24     0x1630 d:/devkitpror43/devkitarm/bin/../lib/gcc/arm-none-eabi/5.3.0/../../../../arm-none-eabi/lib\libc.a(lib_a-vfprintf.o)
 .text._vfprintf_r
                0x02145054     0x48b8 d:/devkitpror43/devkitarm/bin/../lib/gcc/arm-none-eabi/5.3.0/../../../../arm-none-eabi/lib\libc.a(lib_a-vfprintf.o)
                0x02145054                _vfprintf_r
 .text.__sbprintf
                0x0214990c       0xd0 d:/devkitpror43/devkitarm/bin/../lib/gcc/arm-none-eabi/5.3.0/../../../../arm-none-eabi/lib\libc.a(lib_a-vfprintf.o)
 .text._vsnprintf_r
                0x021499dc       0xb8 d:/devkitpror43/devkitarm/bin/../lib/gcc/arm-none-eabi/5.3.0/../../../../arm-none-eabi/lib\libc.a(lib_a-vsnprintf.o)
                0x021499dc                _vsnprintf_r
 .text.vsnprintf
                0x02149a94       0x3c d:/devkitpror43/devkitarm/bin/../lib/gcc/arm-none-eabi/5.3.0/../../../../arm-none-eabi/lib\libc.a(lib_a-vsnprintf.o)
                0x02149a94                vsnprintf
 .text._wcrtomb_r
                0x02149ad0       0x98 d:/devkitpror43/devkitarm/bin/../lib/gcc/arm-none-eabi/5.3.0/../../../../arm-none-eabi/lib\libc.a(lib_a-wcrtomb.o)
                0x02149ad0                _wcrtomb_r
 .text.wcrtomb  0x02149b68       0xa0 d:/devkitpror43/devkitarm/bin/../lib/gcc/arm-none-eabi/5.3.0/../../../../arm-none-eabi/lib\libc.a(lib_a-wcrtomb.o)
                0x02149b68                wcrtomb
 .text._wcsrtombs_r
                0x02149c08       0x24 d:/devkitpror43/devkitarm/bin/../lib/gcc/arm-none-eabi/5.3.0/../../../../arm-none-eabi/lib\libc.a(lib_a-wcsrtombs.o)
                0x02149c08                _wcsrtombs_r
 .text.wctob    0x02149c2c       0x84 d:/devkitpror43/devkitarm/bin/../lib/gcc/arm-none-eabi/5.3.0/../../../../arm-none-eabi/lib\libc.a(lib_a-wctob.o)
                0x02149c2c                wctob
 .text.__utf8_wctomb
                0x02149cb0      0x114 d:/devkitpror43/devkitarm/bin/../lib/gcc/arm-none-eabi/5.3.0/../../../../arm-none-eabi/lib\libc.a(lib_a-wctomb_r.o)
                0x02149cb0                __utf8_wctomb
 .text.__swsetup_r
                0x02149dc4      0x150 d:/devkitpror43/devkitarm/bin/../lib/gcc/arm-none-eabi/5.3.0/../../../../arm-none-eabi/lib\libc.a(lib_a-wsetup.o)
                0x02149dc4                __swsetup_r
 .text.abort    0x02149f14       0x14 d:/devkitpror43/devkitarm/bin/../lib/gcc/arm-none-eabi/5.3.0/../../../../arm-none-eabi/lib\libc.a(lib_a-abort.o)
                0x02149f14                abort
 .text.div      0x02149f28       0x64 d:/devkitpror43/devkitarm/bin/../lib/gcc/arm-none-eabi/5.3.0/../../../../arm-none-eabi/lib\libc.a(lib_a-div.o)
                0x02149f28                div
 .text.quorem   0x02149f8c      0x1d8 d:/devkitpror43/devkitarm/bin/../lib/gcc/arm-none-eabi/5.3.0/../../../../arm-none-eabi/lib\libc.a(lib_a-dtoa.o)
 *fill*         0x0214a164        0x4 ff
 .text._dtoa_r  0x0214a168     0x16e0 d:/devkitpror43/devkitarm/bin/../lib/gcc/arm-none-eabi/5.3.0/../../../../arm-none-eabi/lib\libc.a(lib_a-dtoa.o)
                0x0214a168                _dtoa_r
 .text.__sflags
                0x0214b848       0xb8 d:/devkitpror43/devkitarm/bin/../lib/gcc/arm-none-eabi/5.3.0/../../../../arm-none-eabi/lib\libc.a(lib_a-flags.o)
                0x0214b848                __sflags
 .text.__fputwc
                0x0214b900      0x130 d:/devkitpror43/devkitarm/bin/../lib/gcc/arm-none-eabi/5.3.0/../../../../arm-none-eabi/lib\libc.a(lib_a-fputwc.o)
                0x0214b900                __fputwc
 .text._fputwc_r
                0x0214ba30       0xb0 d:/devkitpror43/devkitarm/bin/../lib/gcc/arm-none-eabi/5.3.0/../../../../arm-none-eabi/lib\libc.a(lib_a-fputwc.o)
                0x0214ba30                _fputwc_r
 .text.__gettzinfo
                0x0214bae0        0xc d:/devkitpror43/devkitarm/bin/../lib/gcc/arm-none-eabi/5.3.0/../../../../arm-none-eabi/lib\libc.a(lib_a-gettzinfo.o)
                0x0214bae0                __gettzinfo
 .text.gmtime_r
                0x0214baec      0x224 d:/devkitpror43/devkitarm/bin/../lib/gcc/arm-none-eabi/5.3.0/../../../../arm-none-eabi/lib\libc.a(lib_a-gmtime_r.o)
                0x0214baec                gmtime_r
 .text.iswspace
                0x0214bd10       0x7c d:/devkitpror43/devkitarm/bin/../lib/gcc/arm-none-eabi/5.3.0/../../../../arm-none-eabi/lib\libc.a(lib_a-iswspace.o)
                0x0214bd10                iswspace
 .text.__jp2uc  0x0214bd8c      0x204 d:/devkitpror43/devkitarm/bin/../lib/gcc/arm-none-eabi/5.3.0/../../../../arm-none-eabi/lib\libc.a(lib_a-jp2uc.o)
 .text._jp2uc   0x0214bf90       0x7c d:/devkitpror43/devkitarm/bin/../lib/gcc/arm-none-eabi/5.3.0/../../../../arm-none-eabi/lib\libc.a(lib_a-jp2uc.o)
                0x0214bf90                _jp2uc
 .text._mbsnrtowcs_r
                0x0214c00c      0x100 d:/devkitpror43/devkitarm/bin/../lib/gcc/arm-none-eabi/5.3.0/../../../../arm-none-eabi/lib\libc.a(lib_a-mbsnrtowcs.o)
                0x0214c00c                _mbsnrtowcs_r
 .text._Balloc  0x0214c10c       0x90 d:/devkitpror43/devkitarm/bin/../lib/gcc/arm-none-eabi/5.3.0/../../../../arm-none-eabi/lib\libc.a(lib_a-mprec.o)
                0x0214c10c                _Balloc
 .text._Bfree   0x0214c19c       0x1c d:/devkitpror43/devkitarm/bin/../lib/gcc/arm-none-eabi/5.3.0/../../../../arm-none-eabi/lib\libc.a(lib_a-mprec.o)
                0x0214c19c                _Bfree
 .text.__multadd
                0x0214c1b8       0xdc d:/devkitpror43/devkitarm/bin/../lib/gcc/arm-none-eabi/5.3.0/../../../../arm-none-eabi/lib\libc.a(lib_a-mprec.o)
                0x0214c1b8                __multadd
 .text.__s2b    0x0214c294       0xe8 d:/devkitpror43/devkitarm/bin/../lib/gcc/arm-none-eabi/5.3.0/../../../../arm-none-eabi/lib\libc.a(lib_a-mprec.o)
                0x0214c294                __s2b
 .text.__hi0bits
                0x0214c37c       0x5c d:/devkitpror43/devkitarm/bin/../lib/gcc/arm-none-eabi/5.3.0/../../../../arm-none-eabi/lib\libc.a(lib_a-mprec.o)
                0x0214c37c                __hi0bits
 .text.__lo0bits
                0x0214c3d8       0x94 d:/devkitpror43/devkitarm/bin/../lib/gcc/arm-none-eabi/5.3.0/../../../../arm-none-eabi/lib\libc.a(lib_a-mprec.o)
                0x0214c3d8                __lo0bits
 .text.__i2b    0x0214c46c       0x24 d:/devkitpror43/devkitarm/bin/../lib/gcc/arm-none-eabi/5.3.0/../../../../arm-none-eabi/lib\libc.a(lib_a-mprec.o)
                0x0214c46c                __i2b
 .text.__multiply
                0x0214c490      0x1f0 d:/devkitpror43/devkitarm/bin/../lib/gcc/arm-none-eabi/5.3.0/../../../../arm-none-eabi/lib\libc.a(lib_a-mprec.o)
                0x0214c490                __multiply
 .text.__pow5mult
                0x0214c680      0x104 d:/devkitpror43/devkitarm/bin/../lib/gcc/arm-none-eabi/5.3.0/../../../../arm-none-eabi/lib\libc.a(lib_a-mprec.o)
                0x0214c680                __pow5mult
 .text.__lshift
                0x0214c784       0xf4 d:/devkitpror43/devkitarm/bin/../lib/gcc/arm-none-eabi/5.3.0/../../../../arm-none-eabi/lib\libc.a(lib_a-mprec.o)
                0x0214c784                __lshift
 .text.__mcmp   0x0214c878       0x64 d:/devkitpror43/devkitarm/bin/../lib/gcc/arm-none-eabi/5.3.0/../../../../arm-none-eabi/lib\libc.a(lib_a-mprec.o)
                0x0214c878                __mcmp
 .text.__mdiff  0x0214c8dc      0x1b0 d:/devkitpror43/devkitarm/bin/../lib/gcc/arm-none-eabi/5.3.0/../../../../arm-none-eabi/lib\libc.a(lib_a-mprec.o)
                0x0214c8dc                __mdiff
 .text.__ulp    0x0214ca8c       0x68 d:/devkitpror43/devkitarm/bin/../lib/gcc/arm-none-eabi/5.3.0/../../../../arm-none-eabi/lib\libc.a(lib_a-mprec.o)
                0x0214ca8c                __ulp
 .text.__b2d    0x0214caf4       0xf8 d:/devkitpror43/devkitarm/bin/../lib/gcc/arm-none-eabi/5.3.0/../../../../arm-none-eabi/lib\libc.a(lib_a-mprec.o)
                0x0214caf4                __b2d
 .text.__d2b    0x0214cbec      0x10c d:/devkitpror43/devkitarm/bin/../lib/gcc/arm-none-eabi/5.3.0/../../../../arm-none-eabi/lib\libc.a(lib_a-mprec.o)
                0x0214cbec                __d2b
 .text.__ratio  0x0214ccf8       0x98 d:/devkitpror43/devkitarm/bin/../lib/gcc/arm-none-eabi/5.3.0/../../../../arm-none-eabi/lib\libc.a(lib_a-mprec.o)
                0x0214ccf8                __ratio
 .text.__copybits
                0x0214cd90       0x70 d:/devkitpror43/devkitarm/bin/../lib/gcc/arm-none-eabi/5.3.0/../../../../arm-none-eabi/lib\libc.a(lib_a-mprec.o)
                0x0214cd90                __copybits
 .text.__any_on
                0x0214ce00       0x80 d:/devkitpror43/devkitarm/bin/../lib/gcc/arm-none-eabi/5.3.0/../../../../arm-none-eabi/lib\libc.a(lib_a-mprec.o)
                0x0214ce00                __any_on
 .text.__sccl   0x0214ce80       0xd4 d:/devkitpror43/devkitarm/bin/../lib/gcc/arm-none-eabi/5.3.0/../../../../arm-none-eabi/lib\libc.a(lib_a-sccl.o)
                0x0214ce80                __sccl
 .text.nanf     0x0214cf54        0xc d:/devkitpror43/devkitarm/bin/../lib/gcc/arm-none-eabi/5.3.0/../../../../arm-none-eabi/lib\libc.a(lib_a-sf_nan.o)
                0x0214cf54                nanf
 .text.frexp    0x0214cf60       0xa8 d:/devkitpror43/devkitarm/bin/../lib/gcc/arm-none-eabi/5.3.0/../../../../arm-none-eabi/lib\libc.a(lib_a-s_frexp.o)
                0x0214cf60                frexp
 .text._raise_r
                0x0214d008       0x98 d:/devkitpror43/devkitarm/bin/../lib/gcc/arm-none-eabi/5.3.0/../../../../arm-none-eabi/lib\libc.a(lib_a-signal.o)
                0x0214d008                _raise_r
 .text.raise    0x0214d0a0       0x18 d:/devkitpror43/devkitarm/bin/../lib/gcc/arm-none-eabi/5.3.0/../../../../arm-none-eabi/lib\libc.a(lib_a-signal.o)
                0x0214d0a0                raise
 .text.stpncpy  0x0214d0b8      0x110 d:/devkitpror43/devkitarm/bin/../lib/gcc/arm-none-eabi/5.3.0/../../../../arm-none-eabi/lib\libc.a(lib_a-stpncpy.o)
                0x0214d0b8                stpncpy
 .text.unlikely.sulp
                0x0214d1c8       0x6c d:/devkitpror43/devkitarm/bin/../lib/gcc/arm-none-eabi/5.3.0/../../../../arm-none-eabi/lib\libc.a(lib_a-strtod.o)
 *fill*         0x0214d234        0x4 ff
 .text._strtod_r
                0x0214d238     0x16a8 d:/devkitpror43/devkitarm/bin/../lib/gcc/arm-none-eabi/5.3.0/../../../../arm-none-eabi/lib\libc.a(lib_a-strtod.o)
                0x0214d238                _strtod_r
 .text._strtoll_r
                0x0214e8e0      0x280 d:/devkitpror43/devkitarm/bin/../lib/gcc/arm-none-eabi/5.3.0/../../../../arm-none-eabi/lib\libc.a(lib_a-strtoll_r.o)
                0x0214e8e0                _strtoll_r
 .text._strtoull_r
                0x0214eb60      0x270 d:/devkitpror43/devkitarm/bin/../lib/gcc/arm-none-eabi/5.3.0/../../../../arm-none-eabi/lib\libc.a(lib_a-strtoull_r.o)
                0x0214eb60                _strtoull_r
 .text._strtoul_r
                0x0214edd0      0x1d4 d:/devkitpror43/devkitarm/bin/../lib/gcc/arm-none-eabi/5.3.0/../../../../arm-none-eabi/lib\libc.a(lib_a-strtoul.o)
                0x0214edd0                _strtoul_r
 .text.__ssprint_r
                0x0214efa4      0x1b0 d:/devkitpror43/devkitarm/bin/../lib/gcc/arm-none-eabi/5.3.0/../../../../arm-none-eabi/lib\libc.a(lib_a-svfiprintf.o)
                0x0214efa4                __ssprint_r
 .text.__swbuf_r
                0x0214f154      0x128 d:/devkitpror43/devkitarm/bin/../lib/gcc/arm-none-eabi/5.3.0/../../../../arm-none-eabi/lib\libc.a(lib_a-wbuf.o)
                0x0214f154                __swbuf_r
 .text._wcsnrtombs_r
                0x0214f27c      0x1a4 d:/devkitpror43/devkitarm/bin/../lib/gcc/arm-none-eabi/5.3.0/../../../../arm-none-eabi/lib\libc.a(lib_a-wcsnrtombs.o)
                0x0214f27c                _wcsnrtombs_r
 .text.rshift   0x0214f420       0xf4 d:/devkitpror43/devkitarm/bin/../lib/gcc/arm-none-eabi/5.3.0/../../../../arm-none-eabi/lib\libc.a(lib_a-gdtoa-gethex.o)
 .text.__gethex
                0x0214f514      0x7e0 d:/devkitpror43/devkitarm/bin/../lib/gcc/arm-none-eabi/5.3.0/../../../../arm-none-eabi/lib\libc.a(lib_a-gdtoa-gethex.o)
                0x0214f514                __gethex
 .text.__hexnan
                0x0214fcf4      0x264 d:/devkitpror43/devkitarm/bin/../lib/gcc/arm-none-eabi/5.3.0/../../../../arm-none-eabi/lib\libc.a(lib_a-gdtoa-hexnan.o)
                0x0214fcf4                __hexnan
 .text.__hexnan.__stub
                0x0214ff58        0xc linker stubs
 *(.stub)
 *(.gnu.warning)
 *(.gnu.linkonce.t*)
 *(.glue_7)
 .glue_7        0x0214ff68        0x0 linker stubs
 *(.glue_7t)
 .glue_7t       0x0214ff68        0x0 linker stubs
                0x0214ff68                . = ALIGN (0x4)

.vfp11_veneer   0x0214ff68        0x0
 .vfp11_veneer  0x0214ff68        0x0 linker stubs

.v4_bx          0x0214ff68        0x0
 .v4_bx         0x0214ff68        0x0 linker stubs

.iplt           0x0214ff68        0x0
 .iplt          0x0214ff68        0x0 d:/devkitpror43/devkitarm/bin/../lib/gcc/arm-none-eabi/5.3.0/../../../../arm-none-eabi/lib/ds_arm9_crt0.o

.fini           0x0214ff68       0x18
 *(.fini)
 .fini          0x0214ff68        0xc d:/devkitpror43/devkitarm/bin/../lib/gcc/arm-none-eabi/5.3.0/crti.o
                0x0214ff68                _fini
 .fini          0x0214ff74        0xc d:/devkitpror43/devkitarm/bin/../lib/gcc/arm-none-eabi/5.3.0/crtn.o
                0x0214ff80                __text_end = .

.rodata         0x0214ff80     0x7044
 *(.rodata)
 .rodata        0x0214ff80     0x2004 default_font.bin.o
                0x0214ff80                default_font_bin
                0x02151f80                default_font_bin_size
                0x02151f80                default_font_bin_end
 .rodata        0x02151f84       0x5c Util.o
                0x02151f84                minilut
 .rodata        0x02151fe0       0x50 directory.o
 .rodata        0x02152030       0x10 disc.o
                0x02152030                _FAT_disc_interfaces
 .rodata        0x02152040       0x68 libfat.o
 .rodata        0x021520a8        0xb partition.o
 *fill*         0x021520b3        0x1 ff
 .rodata        0x021520b4       0xd0 console.o
 .rodata        0x02152184      0x308 trig.o
                0x02152184                SIN_LUT
                0x02152288                TAN_LUT
 .rodata        0x0215248c       0x68 d:/devkitpror43/devkitarm/bin/../lib/gcc/arm-none-eabi/5.3.0/../../../../arm-none-eabi/lib\libsysbase.a(iosupport.o)
                0x0215248c                dotab_stdnull
 .rodata        0x021524f4        0xc d:/devkitpror43/devkitarm/bin/../lib/gcc/arm-none-eabi/5.3.0/../../../../arm-none-eabi/lib\libsysbase.a(chdir.o)
                0x021524f4                DIRECTORY_PARENT
                0x021524f8                DIRECTORY_THIS
                0x021524fc                DIRECTORY_SEPARATOR
 *all.rodata*(*)
 *(.roda)
 *(.rodata.*)
 .rodata.str1.1
                0x02152500       0xbf GBA.arm.o
 .rodata.str1.1
                0x021525bf       0x19 RTC.o
 .rodata.str1.1
                0x021525d8        0x7 Sound.arm.o
 .rodata.str1.1
                0x021525df      0x23e Util.o
                                0x269 (size before relaxing)
 .rodata.str1.1
                0x0215281d       0x26 agbprint.o
 .rodata.str1.1
                0x02152843       0xf5 cpumg.o
                                 0xf8 (size before relaxing)
 .rodata.str1.1
                0x02152938       0x67 irqstuf.arm.o
                                 0x75 (size before relaxing)
 .rodata.str1.1
                0x0215299f       0xbd main.o
                                 0xd1 (size before relaxing)
 .rodata.str1.1
                0x02152a5c      0x156 mydebuger.o
                                0x1ae (size before relaxing)
 .rodata.str1.1
                0x02152bb2       0x59 anothercpu.arm.o
 .rodata.str1.1
                0x02152c0b      0x140 dswnifi_lib.o
                                0x14f (size before relaxing)
 .rodata.str1.1
                0x02152d4b       0x14 sgIP_DHCP.o
 .rodata.str1.1
                0x02152d5f       0x14 directory.o
                                  0x5 (size before relaxing)
 .rodata.str1.1
                0x02152d5f        0x4 disc.o
 .rodata.str1.1
                0x02152d63        0x5 fatdir.o
 .rodata.str1.1
                0x02152d68       0x23 fatfile.o
 .rodata.str1.1
                0x02152d8b        0x8 libfat.o
                                 0x11 (size before relaxing)
 .rodata.str1.1
                0x02152d93       0x82 background.o
 .rodata.str1.1
                0x02152e15      0x2ef console.o
                                0x364 (size before relaxing)
 .rodata.str1.1
                0x02153104       0x44 sassert.o
 .rodata.str1.1
                0x02153148        0xc fifo_handler.o
                                 0x13 (size before relaxing)
 .rodata.str1.4
                0x02153154        0x4 d:/devkitpror43/devkitarm/bin/../lib/gcc/arm-none-eabi/5.3.0/../../../../arm-none-eabi/lib\libm.a(lib_a-w_pow.o)
 .rodata.str1.4
                0x02153158        0x5 d:/devkitpror43/devkitarm/bin/../lib/gcc/arm-none-eabi/5.3.0/../../../../arm-none-eabi/lib\libm.a(lib_a-w_sqrt.o)
                                  0x8 (size before relaxing)
 .rodata.str1.4
                0x0215315d        0x5 d:/devkitpror43/devkitarm/bin/../lib/gcc/arm-none-eabi/5.3.0/../../../../arm-none-eabi/lib\libm.a(lib_a-e_pow.o)
                                  0x4 (size before relaxing)
 *fill*         0x0215315d        0x3 ff
 .rodata.TWO52  0x02153160       0x10 d:/devkitpror43/devkitarm/bin/../lib/gcc/arm-none-eabi/5.3.0/../../../../arm-none-eabi/lib\libm.a(lib_a-s_rint.o)
 .rodata.str1.4
                0x02153170       0x3f d:/devkitpror43/devkitarm/bin/../lib/gcc/arm-none-eabi/5.3.0/../../../../arm-none-eabi/lib\libc.a(lib_a-assert.o)
                                 0x44 (size before relaxing)
 *fill*         0x021531af        0x1 ff
 .rodata._ctype_
                0x021531b0      0x104 d:/devkitpror43/devkitarm/bin/../lib/gcc/arm-none-eabi/5.3.0/../../../../arm-none-eabi/lib\libc.a(lib_a-ctype_.o)
                0x021531b0                _ctype_
 .rodata.str1.4
                0x021532b4        0x2 d:/devkitpror43/devkitarm/bin/../lib/gcc/arm-none-eabi/5.3.0/../../../../arm-none-eabi/lib\libc.a(lib_a-impure.o)
                                  0x4 (size before relaxing)
 *fill*         0x021532b6        0x2 ff
 .rodata._global_impure_ptr
                0x021532b8        0x4 d:/devkitpror43/devkitarm/bin/../lib/gcc/arm-none-eabi/5.3.0/../../../../arm-none-eabi/lib\libc.a(lib_a-impure.o)
                0x021532b8                _global_impure_ptr
 .rodata.str1.4
                0x021532bc      0x126 d:/devkitpror43/devkitarm/bin/../lib/gcc/arm-none-eabi/5.3.0/../../../../arm-none-eabi/lib\libc.a(lib_a-locale.o)
                                0x130 (size before relaxing)
 .rodata.str1.4
                0x021533e2        0x4 d:/devkitpror43/devkitarm/bin/../lib/gcc/arm-none-eabi/5.3.0/../../../../arm-none-eabi/lib\libc.a(lib_a-mbrtowc.o)
 *fill*         0x021533e2        0x2 ff
 .rodata._DAYS_BEFORE_MONTH
                0x021533e4       0x30 d:/devkitpror43/devkitarm/bin/../lib/gcc/arm-none-eabi/5.3.0/../../../../arm-none-eabi/lib\libc.a(lib_a-mktime.o)
 .rodata.DAYS_IN_MONTH
                0x02153414       0x30 d:/devkitpror43/devkitarm/bin/../lib/gcc/arm-none-eabi/5.3.0/../../../../arm-none-eabi/lib\libc.a(lib_a-mktime.o)
 .rodata.__month_lengths
                0x02153444       0x60 d:/devkitpror43/devkitarm/bin/../lib/gcc/arm-none-eabi/5.3.0/../../../../arm-none-eabi/lib\libc.a(lib_a-month_lengths.o)
                0x02153444                __month_lengths
 .rodata.basefix.6493
                0x021534a4       0x24 d:/devkitpror43/devkitarm/bin/../lib/gcc/arm-none-eabi/5.3.0/../../../../arm-none-eabi/lib\libc.a(lib_a-svfiscanf.o)
 .rodata.blanks.7120
                0x021534c8       0x10 d:/devkitpror43/devkitarm/bin/../lib/gcc/arm-none-eabi/5.3.0/../../../../arm-none-eabi/lib\libc.a(lib_a-svfprintf.o)
 .rodata.str1.4
                0x021534d8       0x42 d:/devkitpror43/devkitarm/bin/../lib/gcc/arm-none-eabi/5.3.0/../../../../arm-none-eabi/lib\libc.a(lib_a-svfprintf.o)
                                 0x44 (size before relaxing)
 *fill*         0x0215351a        0x2 ff
 .rodata.zeroes.7121
                0x0215351c       0x10 d:/devkitpror43/devkitarm/bin/../lib/gcc/arm-none-eabi/5.3.0/../../../../arm-none-eabi/lib\libc.a(lib_a-svfprintf.o)
 .rodata.basefix.7042
                0x0215352c       0x24 d:/devkitpror43/devkitarm/bin/../lib/gcc/arm-none-eabi/5.3.0/../../../../arm-none-eabi/lib\libc.a(lib_a-svfscanf.o)
 .rodata.str1.4
                0x02153550        0x5 d:/devkitpror43/devkitarm/bin/../lib/gcc/arm-none-eabi/5.3.0/../../../../arm-none-eabi/lib\libc.a(lib_a-svfscanf.o)
                                  0x8 (size before relaxing)
 *fill*         0x02153555        0x3 ff
 .rodata.CSWTCH.1
                0x02153558      0x108 d:/devkitpror43/devkitarm/bin/../lib/gcc/arm-none-eabi/5.3.0/../../../../arm-none-eabi/lib\libc.a(lib_a-towupper.o)
 .rodata.blanks.7113
                0x02153660       0x10 d:/devkitpror43/devkitarm/bin/../lib/gcc/arm-none-eabi/5.3.0/../../../../arm-none-eabi/lib\libc.a(lib_a-vfiprintf.o)
 .rodata.str1.4
                0x02153670       0x30 d:/devkitpror43/devkitarm/bin/../lib/gcc/arm-none-eabi/5.3.0/../../../../arm-none-eabi/lib\libc.a(lib_a-vfiprintf.o)
 .rodata.zeroes.7114
                0x02153670       0x10 d:/devkitpror43/devkitarm/bin/../lib/gcc/arm-none-eabi/5.3.0/../../../../arm-none-eabi/lib\libc.a(lib_a-vfiprintf.o)
 .rodata.zeroes.7136
                0x02153680       0x10 d:/devkitpror43/devkitarm/bin/../lib/gcc/arm-none-eabi/5.3.0/../../../../arm-none-eabi/lib\libc.a(lib_a-vfprintf.o)
 .rodata.blanks.7135
                0x02153690       0x10 d:/devkitpror43/devkitarm/bin/../lib/gcc/arm-none-eabi/5.3.0/../../../../arm-none-eabi/lib\libc.a(lib_a-vfprintf.o)
 .rodata.str1.4
                0x021536a0       0x44 d:/devkitpror43/devkitarm/bin/../lib/gcc/arm-none-eabi/5.3.0/../../../../arm-none-eabi/lib\libc.a(lib_a-vfprintf.o)
 .rodata.str1.4
                0x021536a0       0x10 d:/devkitpror43/devkitarm/bin/../lib/gcc/arm-none-eabi/5.3.0/../../../../arm-none-eabi/lib\libc.a(lib_a-dtoa.o)
                                 0x14 (size before relaxing)
 .rodata.a1     0x021536b0       0xbc d:/devkitpror43/devkitarm/bin/../lib/gcc/arm-none-eabi/5.3.0/../../../../arm-none-eabi/lib\libc.a(lib_a-jp2uc.o)
 .rodata.a2     0x0215376c       0xbc d:/devkitpror43/devkitarm/bin/../lib/gcc/arm-none-eabi/5.3.0/../../../../arm-none-eabi/lib\libc.a(lib_a-jp2uc.o)
 .rodata.a3     0x02153828       0x5c d:/devkitpror43/devkitarm/bin/../lib/gcc/arm-none-eabi/5.3.0/../../../../arm-none-eabi/lib\libc.a(lib_a-jp2uc.o)
 .rodata.a6     0x02153884       0x70 d:/devkitpror43/devkitarm/bin/../lib/gcc/arm-none-eabi/5.3.0/../../../../arm-none-eabi/lib\libc.a(lib_a-jp2uc.o)
 .rodata.a7     0x021538f4       0xa4 d:/devkitpror43/devkitarm/bin/../lib/gcc/arm-none-eabi/5.3.0/../../../../arm-none-eabi/lib\libc.a(lib_a-jp2uc.o)
 .rodata.a8     0x02153998       0x40 d:/devkitpror43/devkitarm/bin/../lib/gcc/arm-none-eabi/5.3.0/../../../../arm-none-eabi/lib\libc.a(lib_a-jp2uc.o)
 .rodata.str1.4
                0x021539d8       0x14 d:/devkitpror43/devkitarm/bin/../lib/gcc/arm-none-eabi/5.3.0/../../../../arm-none-eabi/lib\libc.a(lib_a-jp2uc.o)
 .rodata.b02cf  0x021539d8     0x172c d:/devkitpror43/devkitarm/bin/../lib/gcc/arm-none-eabi/5.3.0/../../../../arm-none-eabi/lib\libc.a(lib_a-jp2uc.o)
 .rodata.d02f4  0x02155104     0x1a7c d:/devkitpror43/devkitarm/bin/../lib/gcc/arm-none-eabi/5.3.0/../../../../arm-none-eabi/lib\libc.a(lib_a-jp2uc.o)
 .rodata.p05.5410
                0x02156b80        0xc d:/devkitpror43/devkitarm/bin/../lib/gcc/arm-none-eabi/5.3.0/../../../../arm-none-eabi/lib\libc.a(lib_a-mprec.o)
 *fill*         0x02156b8c        0x4 ff
 .rodata.__mprec_bigtens
                0x02156b90       0x28 d:/devkitpror43/devkitarm/bin/../lib/gcc/arm-none-eabi/5.3.0/../../../../arm-none-eabi/lib\libc.a(lib_a-mprec.o)
                0x02156b90                __mprec_bigtens
 .rodata.__mprec_tens
                0x02156bb8       0xc8 d:/devkitpror43/devkitarm/bin/../lib/gcc/arm-none-eabi/5.3.0/../../../../arm-none-eabi/lib\libc.a(lib_a-mprec.o)
                0x02156bb8                __mprec_tens
 .rodata.fpinan.5415
                0x02156c80       0x14 d:/devkitpror43/devkitarm/bin/../lib/gcc/arm-none-eabi/5.3.0/../../../../arm-none-eabi/lib\libc.a(lib_a-strtod.o)
 .rodata.str1.4
                0x02156c94        0xf d:/devkitpror43/devkitarm/bin/../lib/gcc/arm-none-eabi/5.3.0/../../../../arm-none-eabi/lib\libc.a(lib_a-strtod.o)
                                 0x10 (size before relaxing)
 *fill*         0x02156ca3        0x5 ff
 .rodata.tinytens
                0x02156ca8       0x28 d:/devkitpror43/devkitarm/bin/../lib/gcc/arm-none-eabi/5.3.0/../../../../arm-none-eabi/lib\libc.a(lib_a-strtod.o)
 .rodata.fpi.5379
                0x02156cd0       0x14 d:/devkitpror43/devkitarm/bin/../lib/gcc/arm-none-eabi/5.3.0/../../../../arm-none-eabi/lib\libc.a(lib_a-strtod.o)
 .rodata.__state_table
                0x02156ce4       0x6c d:/devkitpror43/devkitarm/bin/../lib/gcc/arm-none-eabi/5.3.0/../../../../arm-none-eabi/lib\libc.a(lib_a-svfiprintf.o)
                0x02156ce4                __state_table
 .rodata.__chclass
                0x02156d50      0x100 d:/devkitpror43/devkitarm/bin/../lib/gcc/arm-none-eabi/5.3.0/../../../../arm-none-eabi/lib\libc.a(lib_a-svfiprintf.o)
                0x02156d50                __chclass
 .rodata.__action_table
                0x02156e50       0x6c d:/devkitpror43/devkitarm/bin/../lib/gcc/arm-none-eabi/5.3.0/../../../../arm-none-eabi/lib\libc.a(lib_a-svfiprintf.o)
                0x02156e50                __action_table
 .rodata.__hexdig
                0x02156ebc      0x100 d:/devkitpror43/devkitarm/bin/../lib/gcc/arm-none-eabi/5.3.0/../../../../arm-none-eabi/lib\libc.a(lib_a-gdtoa-gethex.o)
                0x02156ebc                __hexdig
 .rodata.str1.4
                0x02156fbc        0x8 d:/devkitpror43/devkitarm/bin/../lib/gcc/arm-none-eabi/5.3.0/../../../../arm-none-eabi/lib\libsysbase.a(iosupport.o)
 *(.gnu.linkonce.r*)
                0x02156fc4                . = ALIGN (0x4)

.ARM.extab
 *(.ARM.extab* .gnu.linkonce.armextab.*)
                0x02156fc4                __exidx_start = .

ARM.exidx
 *(.ARM.exidx* .gnu.linkonce.armexidx.*)
                0x02156fc4                __exidx_end = .
                0x02156fc4                . = ALIGN (0x4)
                0x02156fc4                PROVIDE (__preinit_array_start, .)

.preinit_array
 *(.preinit_array)
                0x02156fc4                PROVIDE (__preinit_array_end, .)
                0x02156fc4                PROVIDE (__init_array_start, .)

.init_array     0x02156fc4        0x8
 *(SORT(.init_array.*))
 *(.init_array)
 .init_array    0x02156fc4        0x4 d:/devkitpror43/devkitarm/bin/../lib/gcc/arm-none-eabi/5.3.0/crtbegin.o
 .init_array    0x02156fc8        0x4 GBA.arm.o
                0x02156fcc                PROVIDE (__init_array_end, .)
                [!provide]                PROVIDE (__fini_array_start, .)

.fini_array     0x02156fcc        0x4
 *(.fini_array)
 .fini_array    0x02156fcc        0x4 d:/devkitpror43/devkitarm/bin/../lib/gcc/arm-none-eabi/5.3.0/crtbegin.o
 *(SORT(.fini_array.*))
                [!provide]                PROVIDE (__fini_array_end, .)

.ctors          0x02156fd0        0x0
 *crtbegin.o(.ctors)
 *(EXCLUDE_FILE(*crtend.o) .ctors)
 *(SORT(.ctors.*))
 *(.ctors)
                0x02156fd0                . = ALIGN (0x4)

.dtors          0x02156fd0        0x0
 *crtbegin.o(.dtors)
 *(EXCLUDE_FILE(*crtend.o) .dtors)
 *(SORT(.dtors.*))
 *(.dtors)
                0x02156fd0                . = ALIGN (0x4)

.eh_frame       0x02156fd0       0x48
 *(.eh_frame)
 .eh_frame      0x02156fd0        0x0 d:/devkitpror43/devkitarm/bin/../lib/gcc/arm-none-eabi/5.3.0/crtbegin.o
 .eh_frame      0x02156fd0       0x44 d:/devkitpror43/devkitarm/bin/../lib/gcc/arm-none-eabi/5.3.0/../../../../arm-none-eabi/lib\libc.a(lib_a-strcmp.o)
 .eh_frame      0x02157014        0x4 d:/devkitpror43/devkitarm/bin/../lib/gcc/arm-none-eabi/5.3.0/crtend.o
                0x02157018                . = ALIGN (0x4)

.gcc_except_table
                0x02157018        0x0
 *(.gcc_except_table)
                0x02157018                . = ALIGN (0x4)

.jcr            0x02157018        0x4
 *(.jcr)
 .jcr           0x02157018        0x0 d:/devkitpror43/devkitarm/bin/../lib/gcc/arm-none-eabi/5.3.0/crtbegin.o
 .jcr           0x02157018        0x4 d:/devkitpror43/devkitarm/bin/../lib/gcc/arm-none-eabi/5.3.0/crtend.o

.got
 *(.got.plt)
 *(.got)
 *(.rel.got)

.ewram          0x0215701c        0x0
                0x0215701c                __ewram_start = ABSOLUTE (.)
 *(.ewram)
 *ewram.*(.text)
                0x0215701c                . = ALIGN (0x4)

.data           0x0215701c     0x309c
                0x0215701c                __data_start = ABSOLUTE (.)
 *(.data)
 .data          0x0215701c       0x44 EEprom.o
                0x0215701c                eepromSize
                0x02157020                eepromSaveData
 .data          0x02157060        0xc Flash.o
                0x02157060                flashSize
                0x02157064                flashDeviceID
                0x02157068                flashManufacturerID
 .data          0x0215706c      0x2b8 GBA.arm.o
                0x0215706c                myROM
                0x02157320                cpuSaveGameFunc
 .data          0x02157324        0x4 System.o
                0x02157324                dbgOutput
 .data          0x02157328      0x200 bios.o
                0x02157328                sineTable
 .data          0x02157528       0x1c irqstuf.arm.o
                0x02157528                seloptions
                0x02157538                rootdirnames
 .data          0x02157544       0x1c mydebuger.o
                0x02157544                seloptionsshowmem
 .data          0x02157560       0xf8 dswnifi_lib.o
                0x02157560                remoteSocket
                0x02157564                remoteListenSocket
                0x02157568                remotePort
                0x0215756c                server_ip
                0x02157570                remoteSignal
                0x02157574                port
                0x02157578                nfdata
                0x021575f8                nificrc
                0x02157618                nificonnect
                0x02157638                nifitoken
 .data          0x02157658       0x60 background.o
                0x02157658                bgScrollTable
                0x02157678                bgTransform
                0x02157698                bgControl
 .data          0x021576b8       0x64 console.o
                0x021576b8                currentConsole
                0x021576bc                defaultConsole
 .data          0x0215771c        0x3 keys.o
 *fill*         0x0215771f        0x1 ff
 .data          0x02157720       0x44 d:/devkitpror43/devkitarm/bin/../lib/gcc/arm-none-eabi/5.3.0/../../../../arm-none-eabi/lib\libsysbase.a(iosupport.o)
                0x02157724                devoptab_list
 .data          0x02157764     0x1000 d:/devkitpror43/devkitarm/bin/../lib/gcc/arm-none-eabi/5.3.0/../../../../arm-none-eabi/lib\libsysbase.a(chdir.o)
 .data          0x02158764     0x1028 d:/devkitpror43/devkitarm/bin/../lib/gcc/arm-none-eabi/5.3.0/../../../../arm-none-eabi/lib\libsysbase.a(handle_manager.o)
 *(.data.*)
 .data.__fdlib_version
                0x0215978c        0x1 d:/devkitpror43/devkitarm/bin/../lib/gcc/arm-none-eabi/5.3.0/../../../../arm-none-eabi/lib\libm.a(lib_a-s_lib_ver.o)
                0x0215978c                __fdlib_version
 *fill*         0x0215978d        0x3 ff
 .data.__ctype_ptr__
                0x02159790        0x4 d:/devkitpror43/devkitarm/bin/../lib/gcc/arm-none-eabi/5.3.0/../../../../arm-none-eabi/lib\libc.a(lib_a-ctype_.o)
                0x02159790                __ctype_ptr__
 .data.__sfp_lock
                0x02159794        0xc d:/devkitpror43/devkitarm/bin/../lib/gcc/arm-none-eabi/5.3.0/../../../../arm-none-eabi/lib\libc.a(lib_a-findfp.o)
 .data.__sinit_lock
                0x021597a0        0xc d:/devkitpror43/devkitarm/bin/../lib/gcc/arm-none-eabi/5.3.0/../../../../arm-none-eabi/lib\libc.a(lib_a-findfp.o)
 *fill*         0x021597ac        0x4 ff
 .data.impure_data
                0x021597b0      0x440 d:/devkitpror43/devkitarm/bin/../lib/gcc/arm-none-eabi/5.3.0/../../../../arm-none-eabi/lib\libc.a(lib_a-impure.o)
 .data._impure_ptr
                0x02159bf0        0x4 d:/devkitpror43/devkitarm/bin/../lib/gcc/arm-none-eabi/5.3.0/../../../../arm-none-eabi/lib\libc.a(lib_a-impure.o)
                0x02159bf0                _impure_ptr
 .data.lconv    0x02159bf4       0x38 d:/devkitpror43/devkitarm/bin/../lib/gcc/arm-none-eabi/5.3.0/../../../../arm-none-eabi/lib\libc.a(lib_a-locale.o)
 .data.lc_ctype_charset
                0x02159c2c       0x20 d:/devkitpror43/devkitarm/bin/../lib/gcc/arm-none-eabi/5.3.0/../../../../arm-none-eabi/lib\libc.a(lib_a-locale.o)
 .data.__mb_cur_max
                0x02159c4c        0x4 d:/devkitpror43/devkitarm/bin/../lib/gcc/arm-none-eabi/5.3.0/../../../../arm-none-eabi/lib\libc.a(lib_a-locale.o)
                0x02159c4c                __mb_cur_max
 .data.__malloc_av_
                0x02159c50      0x408 d:/devkitpror43/devkitarm/bin/../lib/gcc/arm-none-eabi/5.3.0/../../../../arm-none-eabi/lib\libc.a(lib_a-mallocr.o)
                0x02159c50                __malloc_av_
 .data.__malloc_trim_threshold
                0x0215a058        0x4 d:/devkitpror43/devkitarm/bin/../lib/gcc/arm-none-eabi/5.3.0/../../../../arm-none-eabi/lib\libc.a(lib_a-mallocr.o)
                0x0215a058                __malloc_trim_threshold
 .data.__malloc_sbrk_base
                0x0215a05c        0x4 d:/devkitpror43/devkitarm/bin/../lib/gcc/arm-none-eabi/5.3.0/../../../../arm-none-eabi/lib\libc.a(lib_a-mallocr.o)
                0x0215a05c                __malloc_sbrk_base
 .data.__mbtowc
                0x0215a060        0x4 d:/devkitpror43/devkitarm/bin/../lib/gcc/arm-none-eabi/5.3.0/../../../../arm-none-eabi/lib\libc.a(lib_a-mbtowc_r.o)
                0x0215a060                __mbtowc
 .data.__malloc_lock_object
                0x0215a064        0xc d:/devkitpror43/devkitarm/bin/../lib/gcc/arm-none-eabi/5.3.0/../../../../arm-none-eabi/lib\libc.a(lib_a-mlock.o)
 .data.__tz_lock_object
                0x0215a070        0x4 d:/devkitpror43/devkitarm/bin/../lib/gcc/arm-none-eabi/5.3.0/../../../../arm-none-eabi/lib\libc.a(lib_a-tzlock.o)
 .data.__wctomb
                0x0215a074        0x4 d:/devkitpror43/devkitarm/bin/../lib/gcc/arm-none-eabi/5.3.0/../../../../arm-none-eabi/lib\libc.a(lib_a-wctomb_r.o)
                0x0215a074                __wctomb
 .data.tzinfo   0x0215a078       0x40 d:/devkitpror43/devkitarm/bin/../lib/gcc/arm-none-eabi/5.3.0/../../../../arm-none-eabi/lib\libc.a(lib_a-gettzinfo.o)
 *(.gnu.linkonce.d*)
                0x0215a0b8                . = ALIGN (0x4)
                0x0215a0b8                __data_end = ABSOLUTE (.)
                0x0215a0b8                __dtcm_lma = .
                0x0215a0b8                __bss_vma = .

.igot.plt       0x0215a0b8        0x0
 .igot.plt      0x0215a0b8        0x0 d:/devkitpror43/devkitarm/bin/../lib/gcc/arm-none-eabi/5.3.0/../../../../arm-none-eabi/lib/ds_arm9_crt0.o

.tm_clone_table
                0x0215a0b8        0x0
 .tm_clone_table
                0x0215a0b8        0x0 d:/devkitpror43/devkitarm/bin/../lib/gcc/arm-none-eabi/5.3.0/crtbegin.o
 .tm_clone_table
                0x0215a0b8        0x0 d:/devkitpror43/devkitarm/bin/../lib/gcc/arm-none-eabi/5.3.0/crtend.o

.dtcm           0x027c0000      0x790 load address 0x0215a0b8
 *(.dtcm)
 .dtcm          0x027c0000      0x528 GBA.arm.o
                0x027c0000                gbaSaveType
                0x027c0004                romSize
                0x027c0008                biosProtected
                0x027c000c                lcdTicks
                0x027c0010                timer0On
                0x027c0014                timer0Ticks
                0x027c0018                timer0Reload
                0x027c001c                timer0ClockReload
                0x027c0020                timer1On
                0x027c0024                timer1Ticks
                0x027c0028                timer1Reload
                0x027c002c                timer1ClockReload
                0x027c0030                timer2On
                0x027c0034                timer2Ticks
                0x027c0038                timer2Reload
                0x027c003c                timer2ClockReload
                0x027c0040                timer3On
                0x027c0044                timer3Ticks
                0x027c0048                timer3Reload
                0x027c004c                timer3ClockReload
                0x027c0050                dma0Source
                0x027c0054                dma0Dest
                0x027c0058                dma1Source
                0x027c005c                dma1Dest
                0x027c0060                dma2Source
                0x027c0064                dma2Dest
                0x027c0068                dma3Source
                0x027c006c                dma3Dest
                0x027c0070                fxOn
                0x027c0071                windowOn
                0x027c0074                frameCount
                0x027c0078                dummyAddress
                0x027c007c                cpuSramEnabled
                0x027c007d                cpuFlashEnabled
                0x027c007e                cpuEEPROMEnabled
                0x027c007f                cpuEEPROMSensorEnabled
                0x027c0080                cpuDmaHack
                0x027c0084                cpuDmaLast
                0x027c0088                cpuDmaCount
                0x027c008c                timer0Value
                0x027c008e                timer1Value
                0x027c0090                timer2Value
                0x027c0092                timer3Value
                0x027c0094                objTilesAddress
                0x027c00a0                memoryWaitSeq32
                0x027c00b0                memoryWaitSeq
                0x027c00c0                memoryWait32
                0x027c00d0                memoryWait
                0x027c00e0                captureNumber
                0x027c00e4                capturePrevious
                0x027c00e8                capture
                0x027c00ec                count
                0x027c00f0                buffer
                0x027c04f0                timerOnOffDelay
                0x027c04f4                cpuTotalTicks
                0x027c04f8                cpuPrefetch
                0x027c0500                holdType
                0x027c0504                holdState
                0x027c0505                stopState
                0x027c0506                intState
                0x027c0508                cpuNextEvent
                0x027c050c                cpuBreakLoop
                0x027c0510                cpuDmaTicksToUpdate
                0x027c0514                busPrefetchCount
                0x027c0518                busPrefetchEnable
                0x027c0519                busPrefetch
                0x027c051c                layerEnableDelay
                0x027c0520                IRQTicks
                0x027c0524                SWITicks
 .dtcm          0x027c0528       0xdc Globals.o
                0x027c0528                ioMem
                0x027c052c                DM1CNT_H
                0x027c052e                DM1CNT_L
                0x027c0530                DM1DAD_H
                0x027c0532                DM1DAD_L
                0x027c0534                DM1SAD_H
                0x027c0536                DM1SAD_L
                0x027c0538                DM0CNT_H
                0x027c053a                DM0CNT_L
                0x027c053c                DM0DAD_H
                0x027c053e                DM0DAD_L
                0x027c0540                DM0SAD_H
                0x027c0542                DM0SAD_L
                0x027c0544                VCOUNT
                0x027c0546                DISPSTAT
                0x027c0548                IME
                0x027c054a                IF
                0x027c054c                IE
                0x027c054e                P1
                0x027c0550                TM3CNT
                0x027c0552                TM3D
                0x027c0554                TM2CNT
                0x027c0556                TM2D
                0x027c0558                TM1CNT
                0x027c055a                TM1D
                0x027c055c                TM0CNT
                0x027c055e                TM0D
                0x027c0560                DM3CNT_H
                0x027c0562                DM3CNT_L
                0x027c0564                DM3DAD_H
                0x027c0566                DM3DAD_L
                0x027c0568                DM3SAD_H
                0x027c056a                DM3SAD_L
                0x027c056c                DM2CNT_H
                0x027c056e                DM2CNT_L
                0x027c0570                DM2DAD_H
                0x027c0572                DM2DAD_L
                0x027c0574                DM2SAD_H
                0x027c0576                DM2SAD_L
                0x027c0578                COLY
                0x027c057a                COLEV
                0x027c057c                BLDMOD
                0x027c057e                MOSAIC
                0x027c0580                WINOUT
                0x027c0582                WININ
                0x027c0584                WIN1V
                0x027c0586                WIN0V
                0x027c0588                WIN1H
                0x027c058a                WIN0H
                0x027c058c                BG3Y_H
                0x027c058e                BG3Y_L
                0x027c0590                BG3X_H
                0x027c0592                BG3X_L
                0x027c0594                BG3PD
                0x027c0596                BG3PC
                0x027c0598                BG3PB
                0x027c059a                BG3PA
                0x027c059c                BG2Y_H
                0x027c059e                BG2Y_L
                0x027c05a0                BG2X_H
                0x027c05a2                BG2X_L
                0x027c05a4                BG2PD
                0x027c05a6                BG2PC
                0x027c05a8                BG2PB
                0x027c05aa                BG2PA
                0x027c05ac                BG3VOFS
                0x027c05ae                BG3HOFS
                0x027c05b0                BG2VOFS
                0x027c05b2                BG2HOFS
                0x027c05b4                BG1VOFS
                0x027c05b6                BG1HOFS
                0x027c05b8                BG0VOFS
                0x027c05ba                BG0HOFS
                0x027c05bc                BG3CNT
                0x027c05be                BG2CNT
                0x027c05c0                BG1CNT
                0x027c05c2                BG0CNT
                0x027c05c4                rom
                0x027c05c8                bios
                0x027c05cc                mirroringEnable
                0x027c05cd                cheatsEnabled
                0x027c05d0                cpuSaveType
                0x027c05d4                speedHack
                0x027c05d8                layerEnable
                0x027c05dc                layerSettings
                0x027c05e0                cpuIsMultiBoot
                0x027c05e1                cpuDisableSfx
                0x027c05e2                synchronize
                0x027c05e3                speedup
                0x027c05e4                frameSkip
                0x027c05e8                skipBios
                0x027c05e9                useBios
                0x027c05ec                saveType
                0x027c05f0                stop
                0x027c05f4                armMode
                0x027c05f8                armNextPC
                0x027c05fc                armIrqEnable
                0x027c05fd                armState
                0x027c05fe                V_FLAG
                0x027c05ff                Z_FLAG
                0x027c0600                C_FLAG
                0x027c0601                N_FLAG
 .dtcm          0x027c0604       0x60 cpumg.o
                0x027c0604                PU_PAGE_128M
                0x027c0608                PU_PAGE_16K
                0x027c060c                PU_PAGE_256K
                0x027c0610                PU_PAGE_1M
                0x027c0614                PU_PAGE_16M
                0x027c0618                gbaBGxCNT
                0x027c0620                gbaDISPCNT
                0x027c0622                gbaIME
                0x027c0624                PU_PAGE_4G
                0x027c0628                PU_PAGE_2G
                0x027c062c                PU_PAGE_1G
                0x027c0630                PU_PAGE_512M
                0x027c0634                PU_PAGE_256M
                0x027c0638                PU_PAGE_64M
                0x027c063c                PU_PAGE_32M
                0x027c0640                PU_PAGE_8M
                0x027c0644                PU_PAGE_4M
                0x027c0648                PU_PAGE_2M
                0x027c064c                PU_PAGE_512K
                0x027c0650                PU_PAGE_128K
                0x027c0654                PU_PAGE_64K
                0x027c0658                PU_PAGE_32K
                0x027c065c                PU_PAGE_8K
                0x027c0660                PU_PAGE_4K
 .dtcm          0x027c0664        0xc irqstuf.arm.o
                0x027c0664                arm9VCOUNTsyncline
                0x027c0668                framenummer
                0x027c066c                DISPCNT
 .dtcm          0x027c0670        0x4 dswnifi_lib.o
                0x027c0670                LastDSWnifiMode
 .dtcm          0x027c0674        0x8 fatfile.o
                0x027c0674                gbafsbuffer
                0x027c0678                current_pointer
 .dtcm          0x027c067c       0xcc interrupts.o
                0x027c067c                irqTable
                0x027c0744                anytimejmpfilter
 .dtcm          0x027c0748       0x48 ex_s.o
                0x027c0748                BIOSDBG_SPSR
                0x027c074c                MPUPERMBACKUPSET_SWI
                0x027c0750                exRegs
 *(.dtcm.*)
                0x027c0790                . = ALIGN (0x4)
                0x027c0790                __dtcm_end = ABSOLUTE (.)
                0x0215a848                __itcm_lma = (__dtcm_lma + SIZEOF (.dtcm))

.itcm           0x01ff8200     0x5780 load address 0x0215a848
 *(.itcm)
 .itcm          0x01ff8200     0x3134 GBA.arm.o
                0x01ff8200                updateVCsub
                0x01ff8288                CPUReadBytereal
                0x01ff8564                CPUReadHalfWordreal
                0x01ff8834                CPUReadHalfWordSigned
                0x01ff885c                CPUReadMemoryreal
                0x01ff8b0c                doDMAslow
                0x01ff8c34                doDMA(unsigned long, unsigned long, unsigned long, unsigned long, unsigned long, int)
                0x01ff8d28                CPUCheckDMA
                0x01ff9178                CPUUpdateRegister
                0x01ffa43c                CPUWriteMemory
                0x01ffa5ac                CPUWriteHalfWord
                0x01ffa750                CPUWriteByte
                0x01ffa99c                updateVC
                0x01ffa9a0                CPUReadMemoryrealpu
                0x01ffab48                CPUReadHalfWordrealpu
                0x01ffad1c                CPUReadHalfWordrealpuSigned
                0x01ffad44                CPUReadByterealpu
                0x01ffaf30                CPUWriteMemorypu
                0x01ffafe8                CPUWriteHalfWordpu
                0x01ffb0f0                CPUWriteBytepu
                0x01ffb274                CPUReadMemory
                0x01ffb278                CPUReadHalfWordSignedoutline
                0x01ffb290                CPUReadByteSigned
                0x01ffb2a8                CPUReadHalfWord
                0x01ffb2ac                CPUReadByte
                0x01ffb2b0                CPUWriteMemoryextern
                0x01ffb2b4                CPUWriteHalfWordextern
                0x01ffb2b8                CPUWriteByteextern
                0x01ffb2bc                ichfly_readu8extern
                0x01ffb2cc                ichfly_readu16extern
                0x01ffb2dc                ichfly_readu32extern
                0x01ffb2ec                CPUReadMemorypu
                0x01ffb2f0                CPUReadHalfWordpu
                0x01ffb2f4                CPUReadBytepu
                0x01ffb2f8                CPUWriteMemorypuextern
                0x01ffb2fc                CPUWriteHalfWordpuextern
                0x01ffb300                CPUWriteBytepuextern
                0x01ffb304                CPUReadHalfWordrealpuSignedoutline
                0x01ffb31c                CPUReadByteSignedpu
 .itcm          0x01ffb334      0x5dc Util.o
                0x01ffb334                swap16
                0x01ffb348                swap32
                0x01ffb36c                entersu()
                0x01ffb394                leavesu()
                0x01ffb3b4                reloadGBA
                0x01ffb6fc                ShowBrowser
 .itcm          0x01ffb910      0x3b4 cpumg.o
                0x01ffb910                undefinedExceptionHandler
                0x01ffb948                puGba()
                0x01ffb96c                puNds()
                0x01ffb990                BIOScall
                0x01ffbc0c                swiExceptionHandler
                0x01ffbc2c                switch_to_unprivileged_mode
                0x01ffbc48                CP15Vectors0x00000000
                0x01ffbc60                CP15Vectors0xFFFF0000
                0x01ffbc78                ARMV5toARMV4Mode
                0x01ffbc90                ARMV4toARMV5Mode
                0x01ffbca8                ndsMode
                0x01ffbcac                gbaMode
                0x01ffbcb0                debugExceptionHandler
 .itcm          0x01ffbcc4      0x150 irqstuf.arm.o
                0x01ffbcc4                HblankHandler
                0x01ffbd20                VblankHandler
 .itcm          0x01ffbe14      0x434 fatfileextract.o
                0x01ffbe14                ichfly_readu8
                0x01ffbec4                ichfly_readu16
                0x01ffbf78                ichfly_readu32
                0x01ffc028                ichfly_readdma_rom
 .itcm          0x01ffc248      0x8bc anothercpu.arm.o
                0x01ffc248                emuInstrTHUMB
 .itcm          0x01ffcb04       0x30 dswnifi.o
                0x01ffcb04                do_multi
                0x01ffcb24                HandleRecvUserspace
 .itcm          0x01ffcb34       0x48 gba_ipc.o
                0x01ffcb34                SendArm7Command
                0x01ffcb44                enterGBASleepMode
                0x01ffcb70                GetsIPCSharedGBA
 .itcm          0x01ffcb7c      0x4e8 dswnifi_lib.o
                0x01ffcb7c                isValidMap
                0x01ffcc78                receiveDSWNIFIFrame
                0x01ffccf0                Handler
                0x01ffcd48                setMULTIMode
                0x01ffcd58                getMULTIMode
                0x01ffcd68                getWIFISetup
                0x01ffcd78                setWIFISetup
                0x01ffcd88                setConnectionStatus
                0x01ffcd98                getConnectionStatus
                0x01ffcda8                Wifi_RawTxFrame_NIFI
                0x01ffcf74                Wifi_RawTxFrame_WIFI
                0x01ffcfd4                sendDSWNIFIFame
                0x01ffd048                doMULTIDaemonStage1
 .itcm          0x01ffd064      0x32c wifi_arm9.o
                0x01ffd064                Wifi_Update
 .itcm          0x01ffd390      0x248 fifo_handler.o
                0x01ffd390                HandleFifo
 *fill*         0x01ffd5d8        0x8 ff
 .itcm          0x01ffd5e0      0x320 cpu_s.o
                0x01ffd5e0                readbankedsp
                0x01ffd610                readbankedlr
                0x01ffd640                cpuSetCPSR
                0x01ffd648                puSetGbaIWRAM
                0x01ffd654                cpu_GetMemPrem
                0x01ffd65c                puSetMemPerm
                0x01ffd664                pu_Enable
                0x01ffd674                cpu_SetCP15Cnt
                0x01ffd67c                cpu_GetCP15Cnt
                0x01ffd684                cpu_ArmJump
                0x01ffd68c                cpu_ArmJumpforstackinit
                0x01ffd6b8                cpuGetSPSR
                0x01ffd6c0                cpuGetCPSR
                0x01ffd6c8                pu_SetRegion
                0x01ffd714                pu_SetDataPermissions
                0x01ffd71c                pu_SetCodePermissions
                0x01ffd724                pu_SetDataCachability
                0x01ffd72c                pu_SetCodeCachability
                0x01ffd734                pu_GetWriteBufferability
                0x01ffd73c                ichflyswiWaitForVBlank
                0x01ffd748                ichflyswiIntrWait
                0x01ffd810                ichflyswiHalt
                0x01ffd824                backup_mpu_setprot
                0x01ffd83c                restore_mpu_setprot
                0x01ffd854                resettostartup
                0x01ffd85c                setVectorsAsm
 .itcm          0x01ffd900       0x70 interruptDispatcher.o
                0x01ffd900                IntrMain
 .itcm.__stub   0x01ffd970        0xc linker stubs
 *itcm.*(.text)
                0x01ffd97c                . = ALIGN (0x4)
                0x01ffd97c                __itcm_end = ABSOLUTE (.)
                0x0215ffc8                __vectors_lma = (__itcm_lma + SIZEOF (.itcm))

.vectors        0x01ff8000      0x1f0 load address 0x0215ffc8
 *(.vectors)
 .vectors       0x01ff8000      0x1f0 ex_s.o
                0x01ff8000                irqhandler2
                0x01ff8030                savedsp
                0x01ff8034                savedlr
                0x01ff8038                spirq
                0x01ff803c                spsvc
 *vectors.*(.text)
                0x01ff81f0                . = ALIGN (0x4)
                0x01ff81f0                __vectors_end = ABSOLUTE (.)

.rel.dyn        0x01ff81f0        0x0 load address 0x021601b8
 .rel.iplt      0x01ff81f0        0x0 d:/devkitpror43/devkitarm/bin/../lib/gcc/arm-none-eabi/5.3.0/../../../../arm-none-eabi/lib/ds_arm9_crt0.o

.sbss           0x027c0790        0x0
                0x027c0790                __sbss_start = ABSOLUTE (.)
                0x027c0790                __sbss_start__ = ABSOLUTE (.)
 *(.sbss)
                0x027c0790                . = ALIGN (0x4)
                0x027c0790                __sbss_end = ABSOLUTE (.)

.bss            0x0215a0b8    0x47488
                0x0215a0b8                __bss_start = ABSOLUTE (.)
                0x0215a0b8                __bss_start__ = ABSOLUTE (.)
 *(.dynbss)
 *(.gnu.linkonce.b*)
 *(.bss*)
 .bss           0x0215a0b8       0x1c d:/devkitpror43/devkitarm/bin/../lib/gcc/arm-none-eabi/5.3.0/crtbegin.o
 .bss           0x0215a0d4     0x2024 EEprom.o
                0x0215a0d4                eepromData
                0x0215c0d4                eepromMode
                0x0215c0d8                eepromByte
                0x0215c0dc                eepromBits
                0x0215c0e0                eepromAddress
                0x0215c0e4                eepromInUse
                0x0215c0e5                eepromBuffer
 .bss           0x0215c0f8    0x2000c Flash.o
                0x0215c0f8                flashState
                0x0215c0fc                flashReadState
                0x0215c100                flashSaveMemory
                0x0217c100                flashBank
 .bss           0x0217c104      0x208 GBA.arm.o
                0x0217c104                cpuBitsSet
                0x0217c204                cpuLowestBitSet
                0x0217c304                out
                0x0217c308                ichflytest
 .bss           0x0217c30c      0xcbc Globals.o
                0x0217c30c                ioReadable
                0x0217c70c                map
                0x0217cf0c                reg
                0x0217cfc0                ichflyfilestreamsize
                0x0217cfc4                ichflyfilestream
 .bss           0x0217cfc8       0x30 RTC.o
 .bss           0x0217cff8      0x138 System.o
                0x0217cff8                __outstr
                0x0217d0f8                systemFPS
                0x0217d0fc                systemRenderedFrames
                0x0217d100                RGB_LOW_BITS_MASK
                0x0217d104                debugger
                0x0217d108                emulating
                0x0217d10c                systemSoundOn
                0x0217d110                systemFrameSkip
                0x0217d114                systemSaveUpdateCounter
                0x0217d118                systemVerbose
                0x0217d11c                systemDebug
                0x0217d120                systemColorDepth
                0x0217d124                systemBlueShift
                0x0217d128                systemGreenShift
                0x0217d12c                systemRedShift
 .bss           0x0217d130     0xf020 Util.o
                0x0217d130                bufNames
                0x0218c130                HeapBlockOfst
                0x0218c134                vramDBlockOfst
                0x0218c138                vramCBlockOfst
                0x0218c13c                vramBBlockOfst
                0x0218c140                vramABlockOfst
                0x0218c144                SaveSizeAfterFix
                0x0218c148                SaveSizeBeforeFix
                0x0218c14c                pendingSaveFix
 .bss           0x0218c150        0x2 agbprint.o
 *fill*         0x0218c152        0x2 
 .bss           0x0218c154      0xb18 cheatsys_extractor.o
                0x0218c154                mastercode
                0x0218c158                rompatch2addr
                0x0218c168                cheatsNumber
                0x0218c16c                cheatsList
                0x0218cc5c                rompatch2oldval
                0x0218cc64                rompatch2val
 .bss           0x0218cc6c     0x2010 cpumg.o
                0x0218cc6c                disableMessage
                0x0218cc70                durchgang
                0x0218cc74                durchlauf
                0x0218cc78                disbuffer
                0x0218ec78                pFile
 .bss           0x0218ec7c       0x24 irqstuf.arm.o
                0x0218ec7c                ignorenextY
                0x0218ec80                bg
                0x0218ec84                dirfeldsizes
                0x0218ec88                names
                0x0218ec8c                dirfeldsize
                0x0218ec90                seite
                0x0218ec94                currentdir
                0x0218ec98                ausgewauhlt
                0x0218ec9c                rootenabelde
 .bss           0x0218eca0      0x904 main.o
                0x0218eca0                biosPath
                0x0218eea0                savePath
                0x0218f0a0                patchPath
                0x0218f2a0                arm7amr9buffer
                0x0218f2a4                arm7exchangefild
                0x0218f3a4                szFile
 .bss           0x0218f5a4       0x58 dswnifi_lib.o
                0x0218f5a4                ip_decimal
                0x0218f5b4                sentReq
                0x0218f5b8                nifi_stat
                0x0218f5bc                FrameSenderUser
                0x0218f5c0                remoteSendFnc
                0x0218f5c4                remoteRecvFnc
                0x0218f5c8                remoteInitFnc
                0x0218f5cc                remoteCleanUpFnc
                0x0218f5d0                remoteResumed
                0x0218f5d4                reconnectCount
                0x0218f5d8                remoteConnected
                0x0218f5dc                guest_framecount
                0x0218f5e0                host_framecount
                0x0218f5e4                guest_vcount
                0x0218f5e8                host_vcount
                0x0218f5ec                plykeys2
                0x0218f5f0                plykeys1
                0x0218f5f4                nifi_keys
                0x0218f5f8                nifi_cmd
 .bss           0x0218f5fc       0x18 wifi_arm9.o
                0x0218f5fc                WifiData
                0x0218f600                wHeapStart
                0x0218f604                wHeapFirst
                0x0218f608                wifi_connect_state
                0x0218f60c                wifi_hw
                0x0218f610                wHeapsize
 .bss           0x0218f614        0x4 cache.o
 .bss           0x0218f618        0x8 fatfile.o
                0x0218f618                latestsectortableSize
                0x0218f61c                allocedfild
 .bss           0x0218f620        0x6 keys.o
 *fill*         0x0218f626        0x2 
 .bss.__malloc_max_total_mem
                0x0218f628        0x4 d:/devkitpror43/devkitarm/bin/../lib/gcc/arm-none-eabi/5.3.0/../../../../arm-none-eabi/lib\libc.a(lib_a-mallocr.o)
                0x0218f628                __malloc_max_total_mem
 .bss.__malloc_max_sbrked_mem
                0x0218f62c        0x4 d:/devkitpror43/devkitarm/bin/../lib/gcc/arm-none-eabi/5.3.0/../../../../arm-none-eabi/lib\libc.a(lib_a-mallocr.o)
                0x0218f62c                __malloc_max_sbrked_mem
 .bss.__malloc_top_pad
                0x0218f630        0x4 d:/devkitpror43/devkitarm/bin/../lib/gcc/arm-none-eabi/5.3.0/../../../../arm-none-eabi/lib\libc.a(lib_a-mallocr.o)
                0x0218f630                __malloc_top_pad
 .bss.__malloc_current_mallinfo
                0x0218f634       0x28 d:/devkitpror43/devkitarm/bin/../lib/gcc/arm-none-eabi/5.3.0/../../../../arm-none-eabi/lib\libc.a(lib_a-mallocr.o)
                0x0218f634                __malloc_current_mallinfo
 .bss._daylight
                0x0218f65c        0x4 d:/devkitpror43/devkitarm/bin/../lib/gcc/arm-none-eabi/5.3.0/../../../../arm-none-eabi/lib\libc.a(lib_a-tzvars.o)
                0x0218f65c                _daylight
 .bss           0x0218f660        0x4 d:/devkitpror43/devkitarm/bin/../lib/gcc/arm-none-eabi/5.3.0/../../../../arm-none-eabi/lib\libsysbase.a(sbrk.o)
 .bss           0x0218f664        0x8 d:/devkitpror43/devkitarm/bin/../lib/gcc/arm-none-eabi/5.3.0/../../../../arm-none-eabi/lib\libsysbase.a(malloc_vars.o)
                0x0218f664                fake_heap_start
                0x0218f668                fake_heap_end
 .bss           0x0218f66c     0x1000 d:/devkitpror43/devkitarm/bin/../lib/gcc/arm-none-eabi/5.3.0/../../../../arm-none-eabi/lib\libsysbase.a(chdir.o)
 .bss           0x0219066c       0x38 d:/devkitpror43/devkitarm/bin/../lib/gcc/arm-none-eabi/5.3.0/../../../../arm-none-eabi/lib\libsysbase.a(syscall_support.o)
                0x0219066c                __syscalls
 *(COMMON)
 COMMON         0x021906a4      0x29c dswnifi_lib.o
                0x021906a4                nifi_keys_sync
                0x021906a8                FrameRecvBlock
                0x021906b0                dswifiSrv
                0x021906c0                client_http_handler_context
                0x02190738                FrameSenderBlock
                0x02190740                data
 COMMON         0x02190940       0x10 sgIP.o
                0x02190940                count_100ms
                0x02190944                count_1000ms
                0x02190948                sgIP_timems
                0x0219094c                sgIP_errno
 COMMON         0x02190950      0x400 sgIP_ARP.o
                0x02190950                ArpRecords
 COMMON         0x02190d50       0x84 sgIP_DHCP.o
                0x02190d50                dhcp_rcvd_dns
                0x02190d5c                dhcp_rcvd_snmask
                0x02190d60                dhcp_state
                0x02190d64                dhcp_p
                0x02190d68                dhcp_optionptr
                0x02190d6c                dhcp_int
                0x02190d70                dhcp_rcvd_ip
                0x02190d74                dhcp_hostname
                0x02190db4                dhcp_serverip
                0x02190db8                dhcp_tid
                0x02190dbc                dhcp_requestDNS
                0x02190dc0                dhcp_socket
                0x02190dc4                dhcp_timestart
                0x02190dc8                dhcp_status
                0x02190dcc                dhcp_rcvd_gateway
                0x02190dd0                dhcp_timelastaction
 COMMON         0x02190dd4     0x5cb4 sgIP_DNS.o
                0x02190dd4                dnsrecord_return
                0x021912f8                time_count
                0x021912fc                alias_list
                0x02191310                querydata
                0x02191510                responsedata
                0x02191710                dnsrecords
                0x02196950                ipaddr_ip
                0x02196954                query_time_start
                0x02196958                addr_list
                0x0219696c                ipaddr_alias
                0x02196a6c                dns_sock
                0x02196a70                last_id
                0x02196a74                dnsrecord_hostent
 COMMON         0x02196a88       0x40 sgIP_Hub.o
                0x02196a88                ProtocolInterfaces
                0x02196a90                NumHWInterfaces
                0x02196a94                HWInterfaces
                0x02196ac4                NumProtocolInterfaces
 COMMON         0x02196ac8        0x4 sgIP_IP.o
                0x02196ac8                idnum_count
 COMMON         0x02196acc      0x810 sgIP_TCP.o
                0x02196acc                tcprecords
                0x02196ad0                lasttime
                0x02196ad4                port_counter
                0x02196ad8                numsynlist
                0x02196adc                synlist
 COMMON         0x021972dc        0x8 sgIP_UDP.o
                0x021972dc                udpport_counter
                0x021972e0                udprecords
 COMMON         0x021972e4      0x100 sgIP_sockets.o
                0x021972e4                socketlist
 COMMON         0x021973e4     0x9fa4 wifi_arm9.o
                0x021973e4                Wifi_Data_Struct
                0x021a1328                synchandler
                0x021a132c                wifi_connect_point
                0x021a1384                packethandler
 COMMON         0x021a1388       0x14 fatfile.o
                0x021a1388                lastopen
                0x021a138c                lastopenlocked
                0x021a1390                partitionlocked
                0x021a1394                sectortabel
                0x021a1398                readSectorslocked
 COMMON         0x021a139c      0x148 background.o
                0x021a139c                bgState
                0x021a14dc                bgIsTextLut
 COMMON         0x021a14e4       0x5c console.o
                0x021a14e4                currentCopy
                0x021a1540                . = ALIGN (0x4)
                0x021a1540                __bss_end__ = ABSOLUTE (.)
                0x021a1540                __end__ = ABSOLUTE (.)

.stab
 *(.stab)

.stabstr
 *(.stabstr)

.stab.excl
 *(.stab.excl)

.stab.exclstr
 *(.stab.exclstr)

.stab.index
 *(.stab.index)

.stab.indexstr
 *(.stab.indexstr)

.comment        0x00000000       0x22
 *(.comment)
 .comment       0x00000000       0x22 d:/devkitpror43/devkitarm/bin/../lib/gcc/arm-none-eabi/5.3.0/crtbegin.o
                                 0x23 (size before relaxing)
 .comment       0x00000022       0x23 EEprom.o
 .comment       0x00000022       0x23 Flash.o
 .comment       0x00000022       0x23 GBA.arm.o
 .comment       0x00000022       0x23 Globals.o
 .comment       0x00000022       0x23 RTC.o
 .comment       0x00000022       0x23 Sound.arm.o
 .comment       0x00000022       0x23 Sram.o
 .comment       0x00000022       0x23 System.o
 .comment       0x00000022       0x23 Util.o
 .comment       0x00000022       0x23 agbprint.o
 .comment       0x00000022       0x23 bios.o
 .comment       0x00000022       0x23 cheatsys_extractor.o
 .comment       0x00000022       0x23 cpumg.o
 .comment       0x00000022       0x23 irqstuf.arm.o
 .comment       0x00000022       0x23 main.o
 .comment       0x00000022       0x23 mydebuger.o
 .comment       0x00000022       0x23 fatfileextract.o
 .comment       0x00000022       0x23 anothercpu.arm.o
 .comment       0x00000022       0x23 dswnifi.o
 .comment       0x00000022       0x23 gba_ipc.o
 .comment       0x00000022       0x23 wifi_shared.o
 .comment       0x00000022       0x23 dswnifi_lib.o
 .comment       0x00000022       0x23 sgIP.o
 .comment       0x00000022       0x23 sgIP_ARP.o
 .comment       0x00000022       0x23 sgIP_DHCP.o
 .comment       0x00000022       0x23 sgIP_DNS.o
 .comment       0x00000022       0x23 sgIP_Hub.o
 .comment       0x00000022       0x23 sgIP_ICMP.o
 .comment       0x00000022       0x23 sgIP_IP.o
 .comment       0x00000022       0x23 sgIP_TCP.o
 .comment       0x00000022       0x23 sgIP_UDP.o
 .comment       0x00000022       0x23 sgIP_memblock.o
 .comment       0x00000022       0x23 sgIP_sockets.o
 .comment       0x00000022       0x23 wifi_arm9.o
 .comment       0x00000022       0x23 cache.o
 .comment       0x00000022       0x23 directory.o
 .comment       0x00000022       0x23 disc.o
 .comment       0x00000022       0x23 dldi.o
 .comment       0x00000022       0x23 fatdir.o
 .comment       0x00000022       0x23 fatfile.o
 .comment       0x00000022       0x23 file_allocation_table.o
 .comment       0x00000022       0x23 filetime.o
 .comment       0x00000022       0x23 libfat.o
 .comment       0x00000022       0x23 lock.o
 .comment       0x00000022       0x23 partition.o
 .comment       0x00000022       0x23 background.o
 .comment       0x00000022       0x23 console.o
 .comment       0x00000022       0x23 devkitpatcher.o
 .comment       0x00000022       0x23 interrupts.o
 .comment       0x00000022       0x23 keys.o
 .comment       0x00000022       0x23 libnds_exit.o
 .comment       0x00000022       0x23 sassert.o
 .comment       0x00000022       0x23 trig.o
 .comment       0x00000022       0x23 video.o
 .comment       0x00000022       0x23 fifo_handler.o
 .comment       0x00000022       0x23 d:/devkitpror43/devkitarm/bin/../lib/gcc/arm-none-eabi/5.3.0/../../../../arm-none-eabi/lib\libm.a(lib_a-w_pow.o)
 .comment       0x00000022       0x23 d:/devkitpror43/devkitarm/bin/../lib/gcc/arm-none-eabi/5.3.0/../../../../arm-none-eabi/lib\libm.a(lib_a-w_sqrt.o)
 .comment       0x00000022       0x23 d:/devkitpror43/devkitarm/bin/../lib/gcc/arm-none-eabi/5.3.0/../../../../arm-none-eabi/lib\libm.a(lib_a-e_pow.o)
 .comment       0x00000022       0x23 d:/devkitpror43/devkitarm/bin/../lib/gcc/arm-none-eabi/5.3.0/../../../../arm-none-eabi/lib\libm.a(lib_a-e_sqrt.o)
 .comment       0x00000022       0x23 d:/devkitpror43/devkitarm/bin/../lib/gcc/arm-none-eabi/5.3.0/../../../../arm-none-eabi/lib\libm.a(lib_a-s_fabs.o)
 .comment       0x00000022       0x23 d:/devkitpror43/devkitarm/bin/../lib/gcc/arm-none-eabi/5.3.0/../../../../arm-none-eabi/lib\libm.a(lib_a-s_finite.o)
 .comment       0x00000022       0x23 d:/devkitpror43/devkitarm/bin/../lib/gcc/arm-none-eabi/5.3.0/../../../../arm-none-eabi/lib\libm.a(lib_a-s_fpclassify.o)
 .comment       0x00000022       0x23 d:/devkitpror43/devkitarm/bin/../lib/gcc/arm-none-eabi/5.3.0/../../../../arm-none-eabi/lib\libm.a(lib_a-s_lib_ver.o)
 .comment       0x00000022       0x23 d:/devkitpror43/devkitarm/bin/../lib/gcc/arm-none-eabi/5.3.0/../../../../arm-none-eabi/lib\libm.a(lib_a-s_matherr.o)
 .comment       0x00000022       0x23 d:/devkitpror43/devkitarm/bin/../lib/gcc/arm-none-eabi/5.3.0/../../../../arm-none-eabi/lib\libm.a(lib_a-s_nan.o)
 .comment       0x00000022       0x23 d:/devkitpror43/devkitarm/bin/../lib/gcc/arm-none-eabi/5.3.0/../../../../arm-none-eabi/lib\libm.a(lib_a-s_rint.o)
 .comment       0x00000022       0x23 d:/devkitpror43/devkitarm/bin/../lib/gcc/arm-none-eabi/5.3.0/../../../../arm-none-eabi/lib\libm.a(lib_a-s_scalbn.o)
 .comment       0x00000022       0x23 d:/devkitpror43/devkitarm/bin/../lib/gcc/arm-none-eabi/5.3.0/../../../../arm-none-eabi/lib\libm.a(lib_a-s_copysign.o)
 .comment       0x00000022       0x23 d:/devkitpror43/devkitarm/bin/../lib/gcc/arm-none-eabi/5.3.0/../../../../arm-none-eabi/lib\libc.a(lib_a-assert.o)
 .comment       0x00000022       0x23 d:/devkitpror43/devkitarm/bin/../lib/gcc/arm-none-eabi/5.3.0/../../../../arm-none-eabi/lib\libc.a(lib_a-calloc.o)
 .comment       0x00000022       0x23 d:/devkitpror43/devkitarm/bin/../lib/gcc/arm-none-eabi/5.3.0/../../../../arm-none-eabi/lib\libc.a(lib_a-callocr.o)
 .comment       0x00000022       0x23 d:/devkitpror43/devkitarm/bin/../lib/gcc/arm-none-eabi/5.3.0/../../../../arm-none-eabi/lib\libc.a(lib_a-ctype_.o)
 .comment       0x00000022       0x23 d:/devkitpror43/devkitarm/bin/../lib/gcc/arm-none-eabi/5.3.0/../../../../arm-none-eabi/lib\libc.a(lib_a-errno.o)
 .comment       0x00000022       0x23 d:/devkitpror43/devkitarm/bin/../lib/gcc/arm-none-eabi/5.3.0/../../../../arm-none-eabi/lib\libc.a(lib_a-fclose.o)
 .comment       0x00000022       0x23 d:/devkitpror43/devkitarm/bin/../lib/gcc/arm-none-eabi/5.3.0/../../../../arm-none-eabi/lib\libc.a(lib_a-fflush.o)
 .comment       0x00000022       0x23 d:/devkitpror43/devkitarm/bin/../lib/gcc/arm-none-eabi/5.3.0/../../../../arm-none-eabi/lib\libc.a(lib_a-findfp.o)
 .comment       0x00000022       0x23 d:/devkitpror43/devkitarm/bin/../lib/gcc/arm-none-eabi/5.3.0/../../../../arm-none-eabi/lib\libc.a(lib_a-fiprintf.o)
 .comment       0x00000022       0x23 d:/devkitpror43/devkitarm/bin/../lib/gcc/arm-none-eabi/5.3.0/../../../../arm-none-eabi/lib\libc.a(lib_a-fopen.o)
 .comment       0x00000022       0x23 d:/devkitpror43/devkitarm/bin/../lib/gcc/arm-none-eabi/5.3.0/../../../../arm-none-eabi/lib\libc.a(lib_a-fputs.o)
 .comment       0x00000022       0x23 d:/devkitpror43/devkitarm/bin/../lib/gcc/arm-none-eabi/5.3.0/../../../../arm-none-eabi/lib\libc.a(lib_a-fread.o)
 .comment       0x00000022       0x23 d:/devkitpror43/devkitarm/bin/../lib/gcc/arm-none-eabi/5.3.0/../../../../arm-none-eabi/lib\libc.a(lib_a-freer.o)
 .comment       0x00000022       0x23 d:/devkitpror43/devkitarm/bin/../lib/gcc/arm-none-eabi/5.3.0/../../../../arm-none-eabi/lib\libc.a(lib_a-fseek.o)
 .comment       0x00000022       0x23 d:/devkitpror43/devkitarm/bin/../lib/gcc/arm-none-eabi/5.3.0/../../../../arm-none-eabi/lib\libc.a(lib_a-fseeko.o)
 .comment       0x00000022       0x23 d:/devkitpror43/devkitarm/bin/../lib/gcc/arm-none-eabi/5.3.0/../../../../arm-none-eabi/lib\libc.a(lib_a-ftell.o)
 .comment       0x00000022       0x23 d:/devkitpror43/devkitarm/bin/../lib/gcc/arm-none-eabi/5.3.0/../../../../arm-none-eabi/lib\libc.a(lib_a-ftello.o)
 .comment       0x00000022       0x23 d:/devkitpror43/devkitarm/bin/../lib/gcc/arm-none-eabi/5.3.0/../../../../arm-none-eabi/lib\libc.a(lib_a-fvwrite.o)
 .comment       0x00000022       0x23 d:/devkitpror43/devkitarm/bin/../lib/gcc/arm-none-eabi/5.3.0/../../../../arm-none-eabi/lib\libc.a(lib_a-fwalk.o)
 .comment       0x00000022       0x23 d:/devkitpror43/devkitarm/bin/../lib/gcc/arm-none-eabi/5.3.0/../../../../arm-none-eabi/lib\libc.a(lib_a-fwrite.o)
 .comment       0x00000022       0x23 d:/devkitpror43/devkitarm/bin/../lib/gcc/arm-none-eabi/5.3.0/../../../../arm-none-eabi/lib\libc.a(lib_a-impure.o)
 .comment       0x00000022       0x23 d:/devkitpror43/devkitarm/bin/../lib/gcc/arm-none-eabi/5.3.0/../../../../arm-none-eabi/lib\libc.a(lib_a-init.o)
 .comment       0x00000022       0x23 d:/devkitpror43/devkitarm/bin/../lib/gcc/arm-none-eabi/5.3.0/../../../../arm-none-eabi/lib\libc.a(lib_a-iprintf.o)
 .comment       0x00000022       0x23 d:/devkitpror43/devkitarm/bin/../lib/gcc/arm-none-eabi/5.3.0/../../../../arm-none-eabi/lib\libc.a(lib_a-lcltime_r.o)
 .comment       0x00000022       0x23 d:/devkitpror43/devkitarm/bin/../lib/gcc/arm-none-eabi/5.3.0/../../../../arm-none-eabi/lib\libc.a(lib_a-locale.o)
 .comment       0x00000022       0x23 d:/devkitpror43/devkitarm/bin/../lib/gcc/arm-none-eabi/5.3.0/../../../../arm-none-eabi/lib\libc.a(lib_a-makebuf.o)
 .comment       0x00000022       0x23 d:/devkitpror43/devkitarm/bin/../lib/gcc/arm-none-eabi/5.3.0/../../../../arm-none-eabi/lib\libc.a(lib_a-malloc.o)
 .comment       0x00000022       0x23 d:/devkitpror43/devkitarm/bin/../lib/gcc/arm-none-eabi/5.3.0/../../../../arm-none-eabi/lib\libc.a(lib_a-mallocr.o)
 .comment       0x00000022       0x23 d:/devkitpror43/devkitarm/bin/../lib/gcc/arm-none-eabi/5.3.0/../../../../arm-none-eabi/lib\libc.a(lib_a-mbrtowc.o)
 .comment       0x00000022       0x23 d:/devkitpror43/devkitarm/bin/../lib/gcc/arm-none-eabi/5.3.0/../../../../arm-none-eabi/lib\libc.a(lib_a-mbsrtowcs.o)
 .comment       0x00000022       0x23 d:/devkitpror43/devkitarm/bin/../lib/gcc/arm-none-eabi/5.3.0/../../../../arm-none-eabi/lib\libc.a(lib_a-mbtowc_r.o)
 .comment       0x00000022       0x23 d:/devkitpror43/devkitarm/bin/../lib/gcc/arm-none-eabi/5.3.0/../../../../arm-none-eabi/lib\libc.a(lib_a-memchr.o)
 .comment       0x00000022       0x23 d:/devkitpror43/devkitarm/bin/../lib/gcc/arm-none-eabi/5.3.0/../../../../arm-none-eabi/lib\libc.a(lib_a-memcmp.o)
 .comment       0x00000022       0x23 d:/devkitpror43/devkitarm/bin/../lib/gcc/arm-none-eabi/5.3.0/../../../../arm-none-eabi/lib\libc.a(lib_a-memcpy.o)
 .comment       0x00000022       0x23 d:/devkitpror43/devkitarm/bin/../lib/gcc/arm-none-eabi/5.3.0/../../../../arm-none-eabi/lib\libc.a(lib_a-memmove.o)
 .comment       0x00000022       0x23 d:/devkitpror43/devkitarm/bin/../lib/gcc/arm-none-eabi/5.3.0/../../../../arm-none-eabi/lib\libc.a(lib_a-memset.o)
 .comment       0x00000022       0x23 d:/devkitpror43/devkitarm/bin/../lib/gcc/arm-none-eabi/5.3.0/../../../../arm-none-eabi/lib\libc.a(lib_a-mktime.o)
 .comment       0x00000022       0x23 d:/devkitpror43/devkitarm/bin/../lib/gcc/arm-none-eabi/5.3.0/../../../../arm-none-eabi/lib\libc.a(lib_a-mlock.o)
 .comment       0x00000022       0x23 d:/devkitpror43/devkitarm/bin/../lib/gcc/arm-none-eabi/5.3.0/../../../../arm-none-eabi/lib\libc.a(lib_a-month_lengths.o)
 .comment       0x00000022       0x23 d:/devkitpror43/devkitarm/bin/../lib/gcc/arm-none-eabi/5.3.0/../../../../arm-none-eabi/lib\libc.a(lib_a-printf.o)
 .comment       0x00000022       0x23 d:/devkitpror43/devkitarm/bin/../lib/gcc/arm-none-eabi/5.3.0/../../../../arm-none-eabi/lib\libc.a(lib_a-reallocr.o)
 .comment       0x00000022       0x23 d:/devkitpror43/devkitarm/bin/../lib/gcc/arm-none-eabi/5.3.0/../../../../arm-none-eabi/lib\libc.a(lib_a-refill.o)
 .comment       0x00000022       0x23 d:/devkitpror43/devkitarm/bin/../lib/gcc/arm-none-eabi/5.3.0/../../../../arm-none-eabi/lib\libc.a(lib_a-setvbuf.o)
 .comment       0x00000022       0x23 d:/devkitpror43/devkitarm/bin/../lib/gcc/arm-none-eabi/5.3.0/../../../../arm-none-eabi/lib\libc.a(lib_a-siscanf.o)
 .comment       0x00000022       0x23 d:/devkitpror43/devkitarm/bin/../lib/gcc/arm-none-eabi/5.3.0/../../../../arm-none-eabi/lib\libc.a(lib_a-sprintf.o)
 .comment       0x00000022       0x23 d:/devkitpror43/devkitarm/bin/../lib/gcc/arm-none-eabi/5.3.0/../../../../arm-none-eabi/lib\libc.a(lib_a-sscanf.o)
 .comment       0x00000022       0x23 d:/devkitpror43/devkitarm/bin/../lib/gcc/arm-none-eabi/5.3.0/../../../../arm-none-eabi/lib\libc.a(lib_a-stdio.o)
 .comment       0x00000022       0x23 d:/devkitpror43/devkitarm/bin/../lib/gcc/arm-none-eabi/5.3.0/../../../../arm-none-eabi/lib\libc.a(lib_a-strcasecmp.o)
 .comment       0x00000022       0x23 d:/devkitpror43/devkitarm/bin/../lib/gcc/arm-none-eabi/5.3.0/../../../../arm-none-eabi/lib\libc.a(lib_a-strcat.o)
 .comment       0x00000022       0x23 d:/devkitpror43/devkitarm/bin/../lib/gcc/arm-none-eabi/5.3.0/../../../../arm-none-eabi/lib\libc.a(lib_a-strchr.o)
 .comment       0x00000022       0x23 d:/devkitpror43/devkitarm/bin/../lib/gcc/arm-none-eabi/5.3.0/../../../../arm-none-eabi/lib\libc.a(lib_a-strcpy.o)
 .comment       0x00000022       0x23 d:/devkitpror43/devkitarm/bin/../lib/gcc/arm-none-eabi/5.3.0/../../../../arm-none-eabi/lib\libc.a(lib_a-strlen.o)
 .comment       0x00000022       0x23 d:/devkitpror43/devkitarm/bin/../lib/gcc/arm-none-eabi/5.3.0/../../../../arm-none-eabi/lib\libc.a(lib_a-strncasecmp.o)
 .comment       0x00000022       0x23 d:/devkitpror43/devkitarm/bin/../lib/gcc/arm-none-eabi/5.3.0/../../../../arm-none-eabi/lib\libc.a(lib_a-strncmp.o)
 .comment       0x00000022       0x23 d:/devkitpror43/devkitarm/bin/../lib/gcc/arm-none-eabi/5.3.0/../../../../arm-none-eabi/lib\libc.a(lib_a-strncpy.o)
 .comment       0x00000022       0x23 d:/devkitpror43/devkitarm/bin/../lib/gcc/arm-none-eabi/5.3.0/../../../../arm-none-eabi/lib\libc.a(lib_a-strnlen.o)
 .comment       0x00000022       0x23 d:/devkitpror43/devkitarm/bin/../lib/gcc/arm-none-eabi/5.3.0/../../../../arm-none-eabi/lib\libc.a(lib_a-strpbrk.o)
 .comment       0x00000022       0x23 d:/devkitpror43/devkitarm/bin/../lib/gcc/arm-none-eabi/5.3.0/../../../../arm-none-eabi/lib\libc.a(lib_a-strrchr.o)
 .comment       0x00000022       0x23 d:/devkitpror43/devkitarm/bin/../lib/gcc/arm-none-eabi/5.3.0/../../../../arm-none-eabi/lib\libc.a(lib_a-strtol.o)
 .comment       0x00000022       0x23 d:/devkitpror43/devkitarm/bin/../lib/gcc/arm-none-eabi/5.3.0/../../../../arm-none-eabi/lib\libc.a(lib_a-svfiscanf.o)
 .comment       0x00000022       0x23 d:/devkitpror43/devkitarm/bin/../lib/gcc/arm-none-eabi/5.3.0/../../../../arm-none-eabi/lib\libc.a(lib_a-svfprintf.o)
 .comment       0x00000022       0x23 d:/devkitpror43/devkitarm/bin/../lib/gcc/arm-none-eabi/5.3.0/../../../../arm-none-eabi/lib\libc.a(lib_a-svfscanf.o)
 .comment       0x00000022       0x23 d:/devkitpror43/devkitarm/bin/../lib/gcc/arm-none-eabi/5.3.0/../../../../arm-none-eabi/lib\libc.a(lib_a-sysclose.o)
 .comment       0x00000022       0x23 d:/devkitpror43/devkitarm/bin/../lib/gcc/arm-none-eabi/5.3.0/../../../../arm-none-eabi/lib\libc.a(lib_a-sysread.o)
 .comment       0x00000022       0x23 d:/devkitpror43/devkitarm/bin/../lib/gcc/arm-none-eabi/5.3.0/../../../../arm-none-eabi/lib\libc.a(lib_a-syssbrk.o)
 .comment       0x00000022       0x23 d:/devkitpror43/devkitarm/bin/../lib/gcc/arm-none-eabi/5.3.0/../../../../arm-none-eabi/lib\libc.a(lib_a-syswrite.o)
 .comment       0x00000022       0x23 d:/devkitpror43/devkitarm/bin/../lib/gcc/arm-none-eabi/5.3.0/../../../../arm-none-eabi/lib\libc.a(lib_a-time.o)
 .comment       0x00000022       0x23 d:/devkitpror43/devkitarm/bin/../lib/gcc/arm-none-eabi/5.3.0/../../../../arm-none-eabi/lib\libc.a(lib_a-tolower.o)
 .comment       0x00000022       0x23 d:/devkitpror43/devkitarm/bin/../lib/gcc/arm-none-eabi/5.3.0/../../../../arm-none-eabi/lib\libc.a(lib_a-toupper.o)
 .comment       0x00000022       0x23 d:/devkitpror43/devkitarm/bin/../lib/gcc/arm-none-eabi/5.3.0/../../../../arm-none-eabi/lib\libc.a(lib_a-towlower.o)
 .comment       0x00000022       0x23 d:/devkitpror43/devkitarm/bin/../lib/gcc/arm-none-eabi/5.3.0/../../../../arm-none-eabi/lib\libc.a(lib_a-towupper.o)
 .comment       0x00000022       0x23 d:/devkitpror43/devkitarm/bin/../lib/gcc/arm-none-eabi/5.3.0/../../../../arm-none-eabi/lib\libc.a(lib_a-tzcalc_limits.o)
 .comment       0x00000022       0x23 d:/devkitpror43/devkitarm/bin/../lib/gcc/arm-none-eabi/5.3.0/../../../../arm-none-eabi/lib\libc.a(lib_a-tzlock.o)
 .comment       0x00000022       0x23 d:/devkitpror43/devkitarm/bin/../lib/gcc/arm-none-eabi/5.3.0/../../../../arm-none-eabi/lib\libc.a(lib_a-tzvars.o)
 .comment       0x00000022       0x23 d:/devkitpror43/devkitarm/bin/../lib/gcc/arm-none-eabi/5.3.0/../../../../arm-none-eabi/lib\libc.a(lib_a-ungetc.o)
 .comment       0x00000022       0x23 d:/devkitpror43/devkitarm/bin/../lib/gcc/arm-none-eabi/5.3.0/../../../../arm-none-eabi/lib\libc.a(lib_a-vfiprintf.o)
 .comment       0x00000022       0x23 d:/devkitpror43/devkitarm/bin/../lib/gcc/arm-none-eabi/5.3.0/../../../../arm-none-eabi/lib\libc.a(lib_a-vfprintf.o)
 .comment       0x00000022       0x23 d:/devkitpror43/devkitarm/bin/../lib/gcc/arm-none-eabi/5.3.0/../../../../arm-none-eabi/lib\libc.a(lib_a-vsnprintf.o)
 .comment       0x00000022       0x23 d:/devkitpror43/devkitarm/bin/../lib/gcc/arm-none-eabi/5.3.0/../../../../arm-none-eabi/lib\libc.a(lib_a-wcrtomb.o)
 .comment       0x00000022       0x23 d:/devkitpror43/devkitarm/bin/../lib/gcc/arm-none-eabi/5.3.0/../../../../arm-none-eabi/lib\libc.a(lib_a-wcsrtombs.o)
 .comment       0x00000022       0x23 d:/devkitpror43/devkitarm/bin/../lib/gcc/arm-none-eabi/5.3.0/../../../../arm-none-eabi/lib\libc.a(lib_a-wctob.o)
 .comment       0x00000022       0x23 d:/devkitpror43/devkitarm/bin/../lib/gcc/arm-none-eabi/5.3.0/../../../../arm-none-eabi/lib\libc.a(lib_a-wctomb_r.o)
 .comment       0x00000022       0x23 d:/devkitpror43/devkitarm/bin/../lib/gcc/arm-none-eabi/5.3.0/../../../../arm-none-eabi/lib\libc.a(lib_a-wsetup.o)
 .comment       0x00000022       0x23 d:/devkitpror43/devkitarm/bin/../lib/gcc/arm-none-eabi/5.3.0/../../../../arm-none-eabi/lib\libc.a(lib_a-abort.o)
 .comment       0x00000022       0x23 d:/devkitpror43/devkitarm/bin/../lib/gcc/arm-none-eabi/5.3.0/../../../../arm-none-eabi/lib\libc.a(lib_a-div.o)
 .comment       0x00000022       0x23 d:/devkitpror43/devkitarm/bin/../lib/gcc/arm-none-eabi/5.3.0/../../../../arm-none-eabi/lib\libc.a(lib_a-dtoa.o)
 .comment       0x00000022       0x23 d:/devkitpror43/devkitarm/bin/../lib/gcc/arm-none-eabi/5.3.0/../../../../arm-none-eabi/lib\libc.a(lib_a-flags.o)
 .comment       0x00000022       0x23 d:/devkitpror43/devkitarm/bin/../lib/gcc/arm-none-eabi/5.3.0/../../../../arm-none-eabi/lib\libc.a(lib_a-fputwc.o)
 .comment       0x00000022       0x23 d:/devkitpror43/devkitarm/bin/../lib/gcc/arm-none-eabi/5.3.0/../../../../arm-none-eabi/lib\libc.a(lib_a-gettzinfo.o)
 .comment       0x00000022       0x23 d:/devkitpror43/devkitarm/bin/../lib/gcc/arm-none-eabi/5.3.0/../../../../arm-none-eabi/lib\libc.a(lib_a-gmtime_r.o)
 .comment       0x00000022       0x23 d:/devkitpror43/devkitarm/bin/../lib/gcc/arm-none-eabi/5.3.0/../../../../arm-none-eabi/lib\libc.a(lib_a-iswspace.o)
 .comment       0x00000022       0x23 d:/devkitpror43/devkitarm/bin/../lib/gcc/arm-none-eabi/5.3.0/../../../../arm-none-eabi/lib\libc.a(lib_a-jp2uc.o)
 .comment       0x00000022       0x23 d:/devkitpror43/devkitarm/bin/../lib/gcc/arm-none-eabi/5.3.0/../../../../arm-none-eabi/lib\libc.a(lib_a-mbsnrtowcs.o)
 .comment       0x00000022       0x23 d:/devkitpror43/devkitarm/bin/../lib/gcc/arm-none-eabi/5.3.0/../../../../arm-none-eabi/lib\libc.a(lib_a-mprec.o)
 .comment       0x00000022       0x23 d:/devkitpror43/devkitarm/bin/../lib/gcc/arm-none-eabi/5.3.0/../../../../arm-none-eabi/lib\libc.a(lib_a-sccl.o)
 .comment       0x00000022       0x23 d:/devkitpror43/devkitarm/bin/../lib/gcc/arm-none-eabi/5.3.0/../../../../arm-none-eabi/lib\libc.a(lib_a-sf_nan.o)
 .comment       0x00000022       0x23 d:/devkitpror43/devkitarm/bin/../lib/gcc/arm-none-eabi/5.3.0/../../../../arm-none-eabi/lib\libc.a(lib_a-s_frexp.o)
 .comment       0x00000022       0x23 d:/devkitpror43/devkitarm/bin/../lib/gcc/arm-none-eabi/5.3.0/../../../../arm-none-eabi/lib\libc.a(lib_a-signal.o)
 .comment       0x00000022       0x23 d:/devkitpror43/devkitarm/bin/../lib/gcc/arm-none-eabi/5.3.0/../../../../arm-none-eabi/lib\libc.a(lib_a-stpncpy.o)
 .comment       0x00000022       0x23 d:/devkitpror43/devkitarm/bin/../lib/gcc/arm-none-eabi/5.3.0/../../../../arm-none-eabi/lib\libc.a(lib_a-strtod.o)
 .comment       0x00000022       0x23 d:/devkitpror43/devkitarm/bin/../lib/gcc/arm-none-eabi/5.3.0/../../../../arm-none-eabi/lib\libc.a(lib_a-strtoll_r.o)
 .comment       0x00000022       0x23 d:/devkitpror43/devkitarm/bin/../lib/gcc/arm-none-eabi/5.3.0/../../../../arm-none-eabi/lib\libc.a(lib_a-strtoull_r.o)
 .comment       0x00000022       0x23 d:/devkitpror43/devkitarm/bin/../lib/gcc/arm-none-eabi/5.3.0/../../../../arm-none-eabi/lib\libc.a(lib_a-strtoul.o)
 .comment       0x00000022       0x23 d:/devkitpror43/devkitarm/bin/../lib/gcc/arm-none-eabi/5.3.0/../../../../arm-none-eabi/lib\libc.a(lib_a-svfiprintf.o)
 .comment       0x00000022       0x23 d:/devkitpror43/devkitarm/bin/../lib/gcc/arm-none-eabi/5.3.0/../../../../arm-none-eabi/lib\libc.a(lib_a-wbuf.o)
 .comment       0x00000022       0x23 d:/devkitpror43/devkitarm/bin/../lib/gcc/arm-none-eabi/5.3.0/../../../../arm-none-eabi/lib\libc.a(lib_a-wcsnrtombs.o)
 .comment       0x00000022       0x23 d:/devkitpror43/devkitarm/bin/../lib/gcc/arm-none-eabi/5.3.0/../../../../arm-none-eabi/lib\libc.a(lib_a-gdtoa-gethex.o)
 .comment       0x00000022       0x23 d:/devkitpror43/devkitarm/bin/../lib/gcc/arm-none-eabi/5.3.0/../../../../arm-none-eabi/lib\libc.a(lib_a-gdtoa-hexnan.o)
 .comment       0x00000022       0x23 d:/devkitpror43/devkitarm/bin/../lib/gcc/arm-none-eabi/5.3.0/../../../../arm-none-eabi/lib\libsysbase.a(iosupport.o)
 .comment       0x00000022       0x23 d:/devkitpror43/devkitarm/bin/../lib/gcc/arm-none-eabi/5.3.0/../../../../arm-none-eabi/lib\libsysbase.a(close.o)
 .comment       0x00000022       0x23 d:/devkitpror43/devkitarm/bin/../lib/gcc/arm-none-eabi/5.3.0/../../../../arm-none-eabi/lib\libsysbase.a(fstat.o)
 .comment       0x00000022       0x23 d:/devkitpror43/devkitarm/bin/../lib/gcc/arm-none-eabi/5.3.0/../../../../arm-none-eabi/lib\libsysbase.a(getpid.o)
 .comment       0x00000022       0x23 d:/devkitpror43/devkitarm/bin/../lib/gcc/arm-none-eabi/5.3.0/../../../../arm-none-eabi/lib\libsysbase.a(gettod.o)
 .comment       0x00000022       0x23 d:/devkitpror43/devkitarm/bin/../lib/gcc/arm-none-eabi/5.3.0/../../../../arm-none-eabi/lib\libsysbase.a(isatty.o)
 .comment       0x00000022       0x23 d:/devkitpror43/devkitarm/bin/../lib/gcc/arm-none-eabi/5.3.0/../../../../arm-none-eabi/lib\libsysbase.a(kill.o)
 .comment       0x00000022       0x23 d:/devkitpror43/devkitarm/bin/../lib/gcc/arm-none-eabi/5.3.0/../../../../arm-none-eabi/lib\libsysbase.a(lseek.o)
 .comment       0x00000022       0x23 d:/devkitpror43/devkitarm/bin/../lib/gcc/arm-none-eabi/5.3.0/../../../../arm-none-eabi/lib\libsysbase.a(open.o)
 .comment       0x00000022       0x23 d:/devkitpror43/devkitarm/bin/../lib/gcc/arm-none-eabi/5.3.0/../../../../arm-none-eabi/lib\libsysbase.a(read.o)
 .comment       0x00000022       0x23 d:/devkitpror43/devkitarm/bin/../lib/gcc/arm-none-eabi/5.3.0/../../../../arm-none-eabi/lib\libsysbase.a(sbrk.o)
 .comment       0x00000022       0x23 d:/devkitpror43/devkitarm/bin/../lib/gcc/arm-none-eabi/5.3.0/../../../../arm-none-eabi/lib\libsysbase.a(write.o)
 .comment       0x00000022       0x23 d:/devkitpror43/devkitarm/bin/../lib/gcc/arm-none-eabi/5.3.0/../../../../arm-none-eabi/lib\libsysbase.a(_exit.o)
 .comment       0x00000022       0x23 d:/devkitpror43/devkitarm/bin/../lib/gcc/arm-none-eabi/5.3.0/../../../../arm-none-eabi/lib\libsysbase.a(malloc_vars.o)
 .comment       0x00000022       0x23 d:/devkitpror43/devkitarm/bin/../lib/gcc/arm-none-eabi/5.3.0/../../../../arm-none-eabi/lib\libsysbase.a(chdir.o)
 .comment       0x00000022       0x23 d:/devkitpror43/devkitarm/bin/../lib/gcc/arm-none-eabi/5.3.0/../../../../arm-none-eabi/lib\libsysbase.a(build_argv.o)
 .comment       0x00000022       0x23 d:/devkitpror43/devkitarm/bin/../lib/gcc/arm-none-eabi/5.3.0/../../../../arm-none-eabi/lib\libsysbase.a(flock.o)
 .comment       0x00000022       0x23 d:/devkitpror43/devkitarm/bin/../lib/gcc/arm-none-eabi/5.3.0/../../../../arm-none-eabi/lib\libsysbase.a(syscall_support.o)
 .comment       0x00000022       0x23 d:/devkitpror43/devkitarm/bin/../lib/gcc/arm-none-eabi/5.3.0/../../../../arm-none-eabi/lib\libsysbase.a(handle_manager.o)
 .comment       0x00000022       0x23 d:/devkitpror43/devkitarm/bin/../lib/gcc/arm-none-eabi/5.3.0/../../../../arm-none-eabi/lib\libsysbase.a(dirent.o)
 .comment       0x00000022       0x23 d:/devkitpror43/devkitarm/bin/../lib/gcc/arm-none-eabi/5.3.0/../../../../arm-none-eabi/lib\libsysbase.a(getreent.o)
 .comment       0x00000022       0x23 d:/devkitpror43/devkitarm/bin/../lib/gcc/arm-none-eabi/5.3.0\libgcc.a(_udivmoddi4.o)
 .comment       0x00000022       0x23 d:/devkitpror43/devkitarm/bin/../lib/gcc/arm-none-eabi/5.3.0/crtend.o

.ARM.attributes
                0x00000000       0x2d
 .ARM.attributes
                0x00000000       0x21 d:/devkitpror43/devkitarm/bin/../lib/gcc/arm-none-eabi/5.3.0/../../../../arm-none-eabi/lib/ds_arm9_crt0.o
 .ARM.attributes
                0x00000021       0x16 d:/devkitpror43/devkitarm/bin/../lib/gcc/arm-none-eabi/5.3.0/crti.o
 .ARM.attributes
                0x00000037       0x30 d:/devkitpror43/devkitarm/bin/../lib/gcc/arm-none-eabi/5.3.0/crtbegin.o
 .ARM.attributes
                0x00000067       0x14 default_font.bin.o
 .ARM.attributes
                0x0000007b       0x30 EEprom.o
 .ARM.attributes
                0x000000ab       0x30 Flash.o
 .ARM.attributes
                0x000000db       0x30 GBA.arm.o
 .ARM.attributes
                0x0000010b       0x30 Globals.o
 .ARM.attributes
                0x0000013b       0x30 RTC.o
 .ARM.attributes
                0x0000016b       0x30 Sound.arm.o
 .ARM.attributes
                0x0000019b       0x30 Sram.o
 .ARM.attributes
                0x000001cb       0x30 System.o
 .ARM.attributes
                0x000001fb       0x30 Util.o
 .ARM.attributes
                0x0000022b       0x30 agbprint.o
 .ARM.attributes
                0x0000025b       0x30 bios.o
 .ARM.attributes
                0x0000028b       0x30 cheatsys_extractor.o
 .ARM.attributes
                0x000002bb       0x30 cpumg.o
 .ARM.attributes
                0x000002eb       0x30 irqstuf.arm.o
 .ARM.attributes
                0x0000031b       0x30 main.o
 .ARM.attributes
                0x0000034b       0x30 mydebuger.o
 .ARM.attributes
                0x0000037b       0x30 fatfileextract.o
 .ARM.attributes
                0x000003ab       0x30 anothercpu.arm.o
 .ARM.attributes
                0x000003db       0x30 dswnifi.o
 .ARM.attributes
                0x0000040b       0x30 gba_ipc.o
 .ARM.attributes
                0x0000043b       0x30 wifi_shared.o
 .ARM.attributes
                0x0000046b       0x30 dswnifi_lib.o
 .ARM.attributes
                0x0000049b       0x30 sgIP.o
 .ARM.attributes
                0x000004cb       0x30 sgIP_ARP.o
 .ARM.attributes
                0x000004fb       0x30 sgIP_DHCP.o
 .ARM.attributes
                0x0000052b       0x30 sgIP_DNS.o
 .ARM.attributes
                0x0000055b       0x30 sgIP_Hub.o
 .ARM.attributes
                0x0000058b       0x30 sgIP_ICMP.o
 .ARM.attributes
                0x000005bb       0x30 sgIP_IP.o
 .ARM.attributes
                0x000005eb       0x30 sgIP_TCP.o
 .ARM.attributes
                0x0000061b       0x30 sgIP_UDP.o
 .ARM.attributes
                0x0000064b       0x30 sgIP_memblock.o
 .ARM.attributes
                0x0000067b       0x30 sgIP_sockets.o
 .ARM.attributes
                0x000006ab       0x30 wifi_arm9.o
 .ARM.attributes
                0x000006db       0x30 cache.o
 .ARM.attributes
                0x0000070b       0x30 directory.o
 .ARM.attributes
                0x0000073b       0x30 disc.o
 .ARM.attributes
                0x0000076b       0x30 dldi.o
 .ARM.attributes
                0x0000079b       0x30 fatdir.o
 .ARM.attributes
                0x000007cb       0x30 fatfile.o
 .ARM.attributes
                0x000007fb       0x30 file_allocation_table.o
 .ARM.attributes
                0x0000082b       0x30 filetime.o
 .ARM.attributes
                0x0000085b       0x30 libfat.o
 .ARM.attributes
                0x0000088b       0x30 lock.o
 .ARM.attributes
                0x000008bb       0x30 partition.o
 .ARM.attributes
                0x000008eb       0x30 background.o
 .ARM.attributes
                0x0000091b       0x30 console.o
 .ARM.attributes
                0x0000094b       0x30 devkitpatcher.o
 .ARM.attributes
                0x0000097b       0x30 interrupts.o
 .ARM.attributes
                0x000009ab       0x30 keys.o
 .ARM.attributes
                0x000009db       0x30 libnds_exit.o
 .ARM.attributes
                0x00000a0b       0x30 sassert.o
 .ARM.attributes
                0x00000a3b       0x30 trig.o
 .ARM.attributes
                0x00000a6b       0x30 video.o
 .ARM.attributes
                0x00000a9b       0x30 fifo_handler.o
 .ARM.attributes
                0x00000acb       0x16 spinlock.o
 .ARM.attributes
                0x00000ae1       0x20 cpu_s.o
 .ARM.attributes
                0x00000b01       0x20 dcache.o
 .ARM.attributes
                0x00000b21       0x20 ex_s.o
 .ARM.attributes
                0x00000b41       0x20 icache.o
 .ARM.attributes
                0x00000b61       0x20 interruptDispatcher.o
 .ARM.attributes
                0x00000b81       0x21 mpu_setup.o
 .ARM.attributes
                0x00000ba2       0x16 dldi_stub.o
 .ARM.attributes
                0x00000bb8       0x1b d:/devkitPror43/libnds/lib\libnds9.a(biosCalls.o)
 .ARM.attributes
                0x00000bd3       0x30 d:/devkitpror43/devkitarm/bin/../lib/gcc/arm-none-eabi/5.3.0/../../../../arm-none-eabi/lib\libm.a(lib_a-w_pow.o)
 .ARM.attributes
                0x00000c03       0x30 d:/devkitpror43/devkitarm/bin/../lib/gcc/arm-none-eabi/5.3.0/../../../../arm-none-eabi/lib\libm.a(lib_a-w_sqrt.o)
 .ARM.attributes
                0x00000c33       0x30 d:/devkitpror43/devkitarm/bin/../lib/gcc/arm-none-eabi/5.3.0/../../../../arm-none-eabi/lib\libm.a(lib_a-e_pow.o)
 .ARM.attributes
                0x00000c63       0x30 d:/devkitpror43/devkitarm/bin/../lib/gcc/arm-none-eabi/5.3.0/../../../../arm-none-eabi/lib\libm.a(lib_a-e_sqrt.o)
 .ARM.attributes
                0x00000c93       0x30 d:/devkitpror43/devkitarm/bin/../lib/gcc/arm-none-eabi/5.3.0/../../../../arm-none-eabi/lib\libm.a(lib_a-s_fabs.o)
 .ARM.attributes
                0x00000cc3       0x30 d:/devkitpror43/devkitarm/bin/../lib/gcc/arm-none-eabi/5.3.0/../../../../arm-none-eabi/lib\libm.a(lib_a-s_finite.o)
 .ARM.attributes
                0x00000cf3       0x30 d:/devkitpror43/devkitarm/bin/../lib/gcc/arm-none-eabi/5.3.0/../../../../arm-none-eabi/lib\libm.a(lib_a-s_fpclassify.o)
 .ARM.attributes
                0x00000d23       0x30 d:/devkitpror43/devkitarm/bin/../lib/gcc/arm-none-eabi/5.3.0/../../../../arm-none-eabi/lib\libm.a(lib_a-s_lib_ver.o)
 .ARM.attributes
                0x00000d53       0x30 d:/devkitpror43/devkitarm/bin/../lib/gcc/arm-none-eabi/5.3.0/../../../../arm-none-eabi/lib\libm.a(lib_a-s_matherr.o)
 .ARM.attributes
                0x00000d83       0x30 d:/devkitpror43/devkitarm/bin/../lib/gcc/arm-none-eabi/5.3.0/../../../../arm-none-eabi/lib\libm.a(lib_a-s_nan.o)
 .ARM.attributes
                0x00000db3       0x30 d:/devkitpror43/devkitarm/bin/../lib/gcc/arm-none-eabi/5.3.0/../../../../arm-none-eabi/lib\libm.a(lib_a-s_rint.o)
 .ARM.attributes
                0x00000de3       0x30 d:/devkitpror43/devkitarm/bin/../lib/gcc/arm-none-eabi/5.3.0/../../../../arm-none-eabi/lib\libm.a(lib_a-s_scalbn.o)
 .ARM.attributes
                0x00000e13       0x30 d:/devkitpror43/devkitarm/bin/../lib/gcc/arm-none-eabi/5.3.0/../../../../arm-none-eabi/lib\libm.a(lib_a-s_copysign.o)
 .ARM.attributes
                0x00000e43       0x18 d:/devkitpror43/devkitarm/bin/../lib/gcc/arm-none-eabi/5.3.0\libgcc.a(_udivsi3.o)
 .ARM.attributes
                0x00000e5b       0x18 d:/devkitpror43/devkitarm/bin/../lib/gcc/arm-none-eabi/5.3.0\libgcc.a(_divsi3.o)
 .ARM.attributes
                0x00000e73       0x18 d:/devkitpror43/devkitarm/bin/../lib/gcc/arm-none-eabi/5.3.0\libgcc.a(_dvmd_tls.o)
 .ARM.attributes
                0x00000e8b       0x18 d:/devkitpror43/devkitarm/bin/../lib/gcc/arm-none-eabi/5.3.0\libgcc.a(_arm_addsubdf3.o)
 .ARM.attributes
                0x00000ea3       0x18 d:/devkitpror43/devkitarm/bin/../lib/gcc/arm-none-eabi/5.3.0\libgcc.a(_arm_muldivdf3.o)
 .ARM.attributes
                0x00000ebb       0x18 d:/devkitpror43/devkitarm/bin/../lib/gcc/arm-none-eabi/5.3.0\libgcc.a(_arm_cmpdf2.o)
 .ARM.attributes
                0x00000ed3       0x18 d:/devkitpror43/devkitarm/bin/../lib/gcc/arm-none-eabi/5.3.0\libgcc.a(_arm_fixdfsi.o)
 .ARM.attributes
                0x00000eeb       0x18 d:/devkitpror43/devkitarm/bin/../lib/gcc/arm-none-eabi/5.3.0\libgcc.a(_arm_fixunsdfsi.o)
 .ARM.attributes
                0x00000f03       0x30 d:/devkitpror43/devkitarm/bin/../lib/gcc/arm-none-eabi/5.3.0/../../../../arm-none-eabi/lib\libc.a(lib_a-assert.o)
 .ARM.attributes
                0x00000f33       0x30 d:/devkitpror43/devkitarm/bin/../lib/gcc/arm-none-eabi/5.3.0/../../../../arm-none-eabi/lib\libc.a(lib_a-calloc.o)
 .ARM.attributes
                0x00000f63       0x30 d:/devkitpror43/devkitarm/bin/../lib/gcc/arm-none-eabi/5.3.0/../../../../arm-none-eabi/lib\libc.a(lib_a-callocr.o)
 .ARM.attributes
                0x00000f93       0x30 d:/devkitpror43/devkitarm/bin/../lib/gcc/arm-none-eabi/5.3.0/../../../../arm-none-eabi/lib\libc.a(lib_a-ctype_.o)
 .ARM.attributes
                0x00000fc3       0x30 d:/devkitpror43/devkitarm/bin/../lib/gcc/arm-none-eabi/5.3.0/../../../../arm-none-eabi/lib\libc.a(lib_a-errno.o)
 .ARM.attributes
                0x00000ff3       0x30 d:/devkitpror43/devkitarm/bin/../lib/gcc/arm-none-eabi/5.3.0/../../../../arm-none-eabi/lib\libc.a(lib_a-fclose.o)
 .ARM.attributes
                0x00001023       0x30 d:/devkitpror43/devkitarm/bin/../lib/gcc/arm-none-eabi/5.3.0/../../../../arm-none-eabi/lib\libc.a(lib_a-fflush.o)
 .ARM.attributes
                0x00001053       0x30 d:/devkitpror43/devkitarm/bin/../lib/gcc/arm-none-eabi/5.3.0/../../../../arm-none-eabi/lib\libc.a(lib_a-findfp.o)
 .ARM.attributes
                0x00001083       0x30 d:/devkitpror43/devkitarm/bin/../lib/gcc/arm-none-eabi/5.3.0/../../../../arm-none-eabi/lib\libc.a(lib_a-fiprintf.o)
 .ARM.attributes
                0x000010b3       0x30 d:/devkitpror43/devkitarm/bin/../lib/gcc/arm-none-eabi/5.3.0/../../../../arm-none-eabi/lib\libc.a(lib_a-fopen.o)
 .ARM.attributes
                0x000010e3       0x30 d:/devkitpror43/devkitarm/bin/../lib/gcc/arm-none-eabi/5.3.0/../../../../arm-none-eabi/lib\libc.a(lib_a-fputs.o)
 .ARM.attributes
                0x00001113       0x30 d:/devkitpror43/devkitarm/bin/../lib/gcc/arm-none-eabi/5.3.0/../../../../arm-none-eabi/lib\libc.a(lib_a-fread.o)
 .ARM.attributes
                0x00001143       0x30 d:/devkitpror43/devkitarm/bin/../lib/gcc/arm-none-eabi/5.3.0/../../../../arm-none-eabi/lib\libc.a(lib_a-freer.o)
 .ARM.attributes
                0x00001173       0x30 d:/devkitpror43/devkitarm/bin/../lib/gcc/arm-none-eabi/5.3.0/../../../../arm-none-eabi/lib\libc.a(lib_a-fseek.o)
 .ARM.attributes
                0x000011a3       0x30 d:/devkitpror43/devkitarm/bin/../lib/gcc/arm-none-eabi/5.3.0/../../../../arm-none-eabi/lib\libc.a(lib_a-fseeko.o)
 .ARM.attributes
                0x000011d3       0x30 d:/devkitpror43/devkitarm/bin/../lib/gcc/arm-none-eabi/5.3.0/../../../../arm-none-eabi/lib\libc.a(lib_a-ftell.o)
 .ARM.attributes
                0x00001203       0x30 d:/devkitpror43/devkitarm/bin/../lib/gcc/arm-none-eabi/5.3.0/../../../../arm-none-eabi/lib\libc.a(lib_a-ftello.o)
 .ARM.attributes
                0x00001233       0x30 d:/devkitpror43/devkitarm/bin/../lib/gcc/arm-none-eabi/5.3.0/../../../../arm-none-eabi/lib\libc.a(lib_a-fvwrite.o)
 .ARM.attributes
                0x00001263       0x30 d:/devkitpror43/devkitarm/bin/../lib/gcc/arm-none-eabi/5.3.0/../../../../arm-none-eabi/lib\libc.a(lib_a-fwalk.o)
 .ARM.attributes
                0x00001293       0x30 d:/devkitpror43/devkitarm/bin/../lib/gcc/arm-none-eabi/5.3.0/../../../../arm-none-eabi/lib\libc.a(lib_a-fwrite.o)
 .ARM.attributes
                0x000012c3       0x30 d:/devkitpror43/devkitarm/bin/../lib/gcc/arm-none-eabi/5.3.0/../../../../arm-none-eabi/lib\libc.a(lib_a-impure.o)
 .ARM.attributes
                0x000012f3       0x30 d:/devkitpror43/devkitarm/bin/../lib/gcc/arm-none-eabi/5.3.0/../../../../arm-none-eabi/lib\libc.a(lib_a-init.o)
 .ARM.attributes
                0x00001323       0x30 d:/devkitpror43/devkitarm/bin/../lib/gcc/arm-none-eabi/5.3.0/../../../../arm-none-eabi/lib\libc.a(lib_a-iprintf.o)
 .ARM.attributes
                0x00001353       0x30 d:/devkitpror43/devkitarm/bin/../lib/gcc/arm-none-eabi/5.3.0/../../../../arm-none-eabi/lib\libc.a(lib_a-lcltime_r.o)
 .ARM.attributes
                0x00001383       0x30 d:/devkitpror43/devkitarm/bin/../lib/gcc/arm-none-eabi/5.3.0/../../../../arm-none-eabi/lib\libc.a(lib_a-locale.o)
 .ARM.attributes
                0x000013b3       0x30 d:/devkitpror43/devkitarm/bin/../lib/gcc/arm-none-eabi/5.3.0/../../../../arm-none-eabi/lib\libc.a(lib_a-makebuf.o)
 .ARM.attributes
                0x000013e3       0x30 d:/devkitpror43/devkitarm/bin/../lib/gcc/arm-none-eabi/5.3.0/../../../../arm-none-eabi/lib\libc.a(lib_a-malloc.o)
 .ARM.attributes
                0x00001413       0x30 d:/devkitpror43/devkitarm/bin/../lib/gcc/arm-none-eabi/5.3.0/../../../../arm-none-eabi/lib\libc.a(lib_a-mallocr.o)
 .ARM.attributes
                0x00001443       0x30 d:/devkitpror43/devkitarm/bin/../lib/gcc/arm-none-eabi/5.3.0/../../../../arm-none-eabi/lib\libc.a(lib_a-mbrtowc.o)
 .ARM.attributes
                0x00001473       0x30 d:/devkitpror43/devkitarm/bin/../lib/gcc/arm-none-eabi/5.3.0/../../../../arm-none-eabi/lib\libc.a(lib_a-mbsrtowcs.o)
 .ARM.attributes
                0x000014a3       0x30 d:/devkitpror43/devkitarm/bin/../lib/gcc/arm-none-eabi/5.3.0/../../../../arm-none-eabi/lib\libc.a(lib_a-mbtowc_r.o)
 .ARM.attributes
                0x000014d3       0x30 d:/devkitpror43/devkitarm/bin/../lib/gcc/arm-none-eabi/5.3.0/../../../../arm-none-eabi/lib\libc.a(lib_a-memchr.o)
 .ARM.attributes
                0x00001503       0x30 d:/devkitpror43/devkitarm/bin/../lib/gcc/arm-none-eabi/5.3.0/../../../../arm-none-eabi/lib\libc.a(lib_a-memcmp.o)
 .ARM.attributes
                0x00001533       0x30 d:/devkitpror43/devkitarm/bin/../lib/gcc/arm-none-eabi/5.3.0/../../../../arm-none-eabi/lib\libc.a(lib_a-memcpy.o)
 .ARM.attributes
                0x00001563       0x30 d:/devkitpror43/devkitarm/bin/../lib/gcc/arm-none-eabi/5.3.0/../../../../arm-none-eabi/lib\libc.a(lib_a-memmove.o)
 .ARM.attributes
                0x00001593       0x30 d:/devkitpror43/devkitarm/bin/../lib/gcc/arm-none-eabi/5.3.0/../../../../arm-none-eabi/lib\libc.a(lib_a-memset.o)
 .ARM.attributes
                0x000015c3       0x30 d:/devkitpror43/devkitarm/bin/../lib/gcc/arm-none-eabi/5.3.0/../../../../arm-none-eabi/lib\libc.a(lib_a-mktime.o)
 .ARM.attributes
                0x000015f3       0x30 d:/devkitpror43/devkitarm/bin/../lib/gcc/arm-none-eabi/5.3.0/../../../../arm-none-eabi/lib\libc.a(lib_a-mlock.o)
 .ARM.attributes
                0x00001623       0x30 d:/devkitpror43/devkitarm/bin/../lib/gcc/arm-none-eabi/5.3.0/../../../../arm-none-eabi/lib\libc.a(lib_a-month_lengths.o)
 .ARM.attributes
                0x00001653       0x30 d:/devkitpror43/devkitarm/bin/../lib/gcc/arm-none-eabi/5.3.0/../../../../arm-none-eabi/lib\libc.a(lib_a-printf.o)
 .ARM.attributes
                0x00001683       0x30 d:/devkitpror43/devkitarm/bin/../lib/gcc/arm-none-eabi/5.3.0/../../../../arm-none-eabi/lib\libc.a(lib_a-reallocr.o)
 .ARM.attributes
                0x000016b3       0x30 d:/devkitpror43/devkitarm/bin/../lib/gcc/arm-none-eabi/5.3.0/../../../../arm-none-eabi/lib\libc.a(lib_a-refill.o)
 .ARM.attributes
                0x000016e3       0x30 d:/devkitpror43/devkitarm/bin/../lib/gcc/arm-none-eabi/5.3.0/../../../../arm-none-eabi/lib\libc.a(lib_a-setvbuf.o)
 .ARM.attributes
                0x00001713       0x30 d:/devkitpror43/devkitarm/bin/../lib/gcc/arm-none-eabi/5.3.0/../../../../arm-none-eabi/lib\libc.a(lib_a-siscanf.o)
 .ARM.attributes
                0x00001743       0x30 d:/devkitpror43/devkitarm/bin/../lib/gcc/arm-none-eabi/5.3.0/../../../../arm-none-eabi/lib\libc.a(lib_a-sprintf.o)
 .ARM.attributes
                0x00001773       0x30 d:/devkitpror43/devkitarm/bin/../lib/gcc/arm-none-eabi/5.3.0/../../../../arm-none-eabi/lib\libc.a(lib_a-sscanf.o)
 .ARM.attributes
                0x000017a3       0x30 d:/devkitpror43/devkitarm/bin/../lib/gcc/arm-none-eabi/5.3.0/../../../../arm-none-eabi/lib\libc.a(lib_a-stdio.o)
 .ARM.attributes
                0x000017d3       0x30 d:/devkitpror43/devkitarm/bin/../lib/gcc/arm-none-eabi/5.3.0/../../../../arm-none-eabi/lib\libc.a(lib_a-strcasecmp.o)
 .ARM.attributes
                0x00001803       0x30 d:/devkitpror43/devkitarm/bin/../lib/gcc/arm-none-eabi/5.3.0/../../../../arm-none-eabi/lib\libc.a(lib_a-strcat.o)
 .ARM.attributes
                0x00001833       0x30 d:/devkitpror43/devkitarm/bin/../lib/gcc/arm-none-eabi/5.3.0/../../../../arm-none-eabi/lib\libc.a(lib_a-strchr.o)
 .ARM.attributes
                0x00001863       0x16 d:/devkitpror43/devkitarm/bin/../lib/gcc/arm-none-eabi/5.3.0/../../../../arm-none-eabi/lib\libc.a(lib_a-strcmp.o)
 .ARM.attributes
                0x00001879       0x30 d:/devkitpror43/devkitarm/bin/../lib/gcc/arm-none-eabi/5.3.0/../../../../arm-none-eabi/lib\libc.a(lib_a-strcpy.o)
 .ARM.attributes
                0x000018a9       0x30 d:/devkitpror43/devkitarm/bin/../lib/gcc/arm-none-eabi/5.3.0/../../../../arm-none-eabi/lib\libc.a(lib_a-strlen.o)
 .ARM.attributes
                0x000018d9       0x30 d:/devkitpror43/devkitarm/bin/../lib/gcc/arm-none-eabi/5.3.0/../../../../arm-none-eabi/lib\libc.a(lib_a-strncasecmp.o)
 .ARM.attributes
                0x00001909       0x30 d:/devkitpror43/devkitarm/bin/../lib/gcc/arm-none-eabi/5.3.0/../../../../arm-none-eabi/lib\libc.a(lib_a-strncmp.o)
 .ARM.attributes
                0x00001939       0x30 d:/devkitpror43/devkitarm/bin/../lib/gcc/arm-none-eabi/5.3.0/../../../../arm-none-eabi/lib\libc.a(lib_a-strncpy.o)
 .ARM.attributes
                0x00001969       0x30 d:/devkitpror43/devkitarm/bin/../lib/gcc/arm-none-eabi/5.3.0/../../../../arm-none-eabi/lib\libc.a(lib_a-strnlen.o)
 .ARM.attributes
                0x00001999       0x30 d:/devkitpror43/devkitarm/bin/../lib/gcc/arm-none-eabi/5.3.0/../../../../arm-none-eabi/lib\libc.a(lib_a-strpbrk.o)
 .ARM.attributes
                0x000019c9       0x30 d:/devkitpror43/devkitarm/bin/../lib/gcc/arm-none-eabi/5.3.0/../../../../arm-none-eabi/lib\libc.a(lib_a-strrchr.o)
 .ARM.attributes
                0x000019f9       0x30 d:/devkitpror43/devkitarm/bin/../lib/gcc/arm-none-eabi/5.3.0/../../../../arm-none-eabi/lib\libc.a(lib_a-strtol.o)
 .ARM.attributes
                0x00001a29       0x30 d:/devkitpror43/devkitarm/bin/../lib/gcc/arm-none-eabi/5.3.0/../../../../arm-none-eabi/lib\libc.a(lib_a-svfiscanf.o)
 .ARM.attributes
                0x00001a59       0x30 d:/devkitpror43/devkitarm/bin/../lib/gcc/arm-none-eabi/5.3.0/../../../../arm-none-eabi/lib\libc.a(lib_a-svfprintf.o)
 .ARM.attributes
                0x00001a89       0x30 d:/devkitpror43/devkitarm/bin/../lib/gcc/arm-none-eabi/5.3.0/../../../../arm-none-eabi/lib\libc.a(lib_a-svfscanf.o)
 .ARM.attributes
                0x00001ab9       0x30 d:/devkitpror43/devkitarm/bin/../lib/gcc/arm-none-eabi/5.3.0/../../../../arm-none-eabi/lib\libc.a(lib_a-sysclose.o)
 .ARM.attributes
                0x00001ae9       0x30 d:/devkitpror43/devkitarm/bin/../lib/gcc/arm-none-eabi/5.3.0/../../../../arm-none-eabi/lib\libc.a(lib_a-sysread.o)
 .ARM.attributes
                0x00001b19       0x30 d:/devkitpror43/devkitarm/bin/../lib/gcc/arm-none-eabi/5.3.0/../../../../arm-none-eabi/lib\libc.a(lib_a-syssbrk.o)
 .ARM.attributes
                0x00001b49       0x30 d:/devkitpror43/devkitarm/bin/../lib/gcc/arm-none-eabi/5.3.0/../../../../arm-none-eabi/lib\libc.a(lib_a-syswrite.o)
 .ARM.attributes
                0x00001b79       0x30 d:/devkitpror43/devkitarm/bin/../lib/gcc/arm-none-eabi/5.3.0/../../../../arm-none-eabi/lib\libc.a(lib_a-time.o)
 .ARM.attributes
                0x00001ba9       0x30 d:/devkitpror43/devkitarm/bin/../lib/gcc/arm-none-eabi/5.3.0/../../../../arm-none-eabi/lib\libc.a(lib_a-tolower.o)
 .ARM.attributes
                0x00001bd9       0x30 d:/devkitpror43/devkitarm/bin/../lib/gcc/arm-none-eabi/5.3.0/../../../../arm-none-eabi/lib\libc.a(lib_a-toupper.o)
 .ARM.attributes
                0x00001c09       0x30 d:/devkitpror43/devkitarm/bin/../lib/gcc/arm-none-eabi/5.3.0/../../../../arm-none-eabi/lib\libc.a(lib_a-towlower.o)
 .ARM.attributes
                0x00001c39       0x30 d:/devkitpror43/devkitarm/bin/../lib/gcc/arm-none-eabi/5.3.0/../../../../arm-none-eabi/lib\libc.a(lib_a-towupper.o)
 .ARM.attributes
                0x00001c69       0x30 d:/devkitpror43/devkitarm/bin/../lib/gcc/arm-none-eabi/5.3.0/../../../../arm-none-eabi/lib\libc.a(lib_a-tzcalc_limits.o)
 .ARM.attributes
                0x00001c99       0x30 d:/devkitpror43/devkitarm/bin/../lib/gcc/arm-none-eabi/5.3.0/../../../../arm-none-eabi/lib\libc.a(lib_a-tzlock.o)
 .ARM.attributes
                0x00001cc9       0x30 d:/devkitpror43/devkitarm/bin/../lib/gcc/arm-none-eabi/5.3.0/../../../../arm-none-eabi/lib\libc.a(lib_a-tzvars.o)
 .ARM.attributes
                0x00001cf9       0x30 d:/devkitpror43/devkitarm/bin/../lib/gcc/arm-none-eabi/5.3.0/../../../../arm-none-eabi/lib\libc.a(lib_a-ungetc.o)
 .ARM.attributes
                0x00001d29       0x30 d:/devkitpror43/devkitarm/bin/../lib/gcc/arm-none-eabi/5.3.0/../../../../arm-none-eabi/lib\libc.a(lib_a-vfiprintf.o)
 .ARM.attributes
                0x00001d59       0x30 d:/devkitpror43/devkitarm/bin/../lib/gcc/arm-none-eabi/5.3.0/../../../../arm-none-eabi/lib\libc.a(lib_a-vfprintf.o)
 .ARM.attributes
                0x00001d89       0x30 d:/devkitpror43/devkitarm/bin/../lib/gcc/arm-none-eabi/5.3.0/../../../../arm-none-eabi/lib\libc.a(lib_a-vsnprintf.o)
 .ARM.attributes
                0x00001db9       0x30 d:/devkitpror43/devkitarm/bin/../lib/gcc/arm-none-eabi/5.3.0/../../../../arm-none-eabi/lib\libc.a(lib_a-wcrtomb.o)
 .ARM.attributes
                0x00001de9       0x30 d:/devkitpror43/devkitarm/bin/../lib/gcc/arm-none-eabi/5.3.0/../../../../arm-none-eabi/lib\libc.a(lib_a-wcsrtombs.o)
 .ARM.attributes
                0x00001e19       0x30 d:/devkitpror43/devkitarm/bin/../lib/gcc/arm-none-eabi/5.3.0/../../../../arm-none-eabi/lib\libc.a(lib_a-wctob.o)
 .ARM.attributes
                0x00001e49       0x30 d:/devkitpror43/devkitarm/bin/../lib/gcc/arm-none-eabi/5.3.0/../../../../arm-none-eabi/lib\libc.a(lib_a-wctomb_r.o)
 .ARM.attributes
                0x00001e79       0x30 d:/devkitpror43/devkitarm/bin/../lib/gcc/arm-none-eabi/5.3.0/../../../../arm-none-eabi/lib\libc.a(lib_a-wsetup.o)
 .ARM.attributes
                0x00001ea9       0x30 d:/devkitpror43/devkitarm/bin/../lib/gcc/arm-none-eabi/5.3.0/../../../../arm-none-eabi/lib\libc.a(lib_a-abort.o)
 .ARM.attributes
                0x00001ed9       0x30 d:/devkitpror43/devkitarm/bin/../lib/gcc/arm-none-eabi/5.3.0/../../../../arm-none-eabi/lib\libc.a(lib_a-div.o)
 .ARM.attributes
                0x00001f09       0x30 d:/devkitpror43/devkitarm/bin/../lib/gcc/arm-none-eabi/5.3.0/../../../../arm-none-eabi/lib\libc.a(lib_a-dtoa.o)
 .ARM.attributes
                0x00001f39       0x30 d:/devkitpror43/devkitarm/bin/../lib/gcc/arm-none-eabi/5.3.0/../../../../arm-none-eabi/lib\libc.a(lib_a-flags.o)
 .ARM.attributes
                0x00001f69       0x30 d:/devkitpror43/devkitarm/bin/../lib/gcc/arm-none-eabi/5.3.0/../../../../arm-none-eabi/lib\libc.a(lib_a-fputwc.o)
 .ARM.attributes
                0x00001f99       0x30 d:/devkitpror43/devkitarm/bin/../lib/gcc/arm-none-eabi/5.3.0/../../../../arm-none-eabi/lib\libc.a(lib_a-gettzinfo.o)
 .ARM.attributes
                0x00001fc9       0x30 d:/devkitpror43/devkitarm/bin/../lib/gcc/arm-none-eabi/5.3.0/../../../../arm-none-eabi/lib\libc.a(lib_a-gmtime_r.o)
 .ARM.attributes
                0x00001ff9       0x30 d:/devkitpror43/devkitarm/bin/../lib/gcc/arm-none-eabi/5.3.0/../../../../arm-none-eabi/lib\libc.a(lib_a-iswspace.o)
 .ARM.attributes
                0x00002029       0x30 d:/devkitpror43/devkitarm/bin/../lib/gcc/arm-none-eabi/5.3.0/../../../../arm-none-eabi/lib\libc.a(lib_a-jp2uc.o)
 .ARM.attributes
                0x00002059       0x30 d:/devkitpror43/devkitarm/bin/../lib/gcc/arm-none-eabi/5.3.0/../../../../arm-none-eabi/lib\libc.a(lib_a-mbsnrtowcs.o)
 .ARM.attributes
                0x00002089       0x30 d:/devkitpror43/devkitarm/bin/../lib/gcc/arm-none-eabi/5.3.0/../../../../arm-none-eabi/lib\libc.a(lib_a-mprec.o)
 .ARM.attributes
                0x000020b9       0x30 d:/devkitpror43/devkitarm/bin/../lib/gcc/arm-none-eabi/5.3.0/../../../../arm-none-eabi/lib\libc.a(lib_a-sccl.o)
 .ARM.attributes
                0x000020e9       0x30 d:/devkitpror43/devkitarm/bin/../lib/gcc/arm-none-eabi/5.3.0/../../../../arm-none-eabi/lib\libc.a(lib_a-sf_nan.o)
 .ARM.attributes
                0x00002119       0x30 d:/devkitpror43/devkitarm/bin/../lib/gcc/arm-none-eabi/5.3.0/../../../../arm-none-eabi/lib\libc.a(lib_a-s_frexp.o)
 .ARM.attributes
                0x00002149       0x30 d:/devkitpror43/devkitarm/bin/../lib/gcc/arm-none-eabi/5.3.0/../../../../arm-none-eabi/lib\libc.a(lib_a-signal.o)
 .ARM.attributes
                0x00002179       0x30 d:/devkitpror43/devkitarm/bin/../lib/gcc/arm-none-eabi/5.3.0/../../../../arm-none-eabi/lib\libc.a(lib_a-stpncpy.o)
 .ARM.attributes
                0x000021a9       0x30 d:/devkitpror43/devkitarm/bin/../lib/gcc/arm-none-eabi/5.3.0/../../../../arm-none-eabi/lib\libc.a(lib_a-strtod.o)
 .ARM.attributes
                0x000021d9       0x30 d:/devkitpror43/devkitarm/bin/../lib/gcc/arm-none-eabi/5.3.0/../../../../arm-none-eabi/lib\libc.a(lib_a-strtoll_r.o)
 .ARM.attributes
                0x00002209       0x30 d:/devkitpror43/devkitarm/bin/../lib/gcc/arm-none-eabi/5.3.0/../../../../arm-none-eabi/lib\libc.a(lib_a-strtoull_r.o)
 .ARM.attributes
                0x00002239       0x30 d:/devkitpror43/devkitarm/bin/../lib/gcc/arm-none-eabi/5.3.0/../../../../arm-none-eabi/lib\libc.a(lib_a-strtoul.o)
 .ARM.attributes
                0x00002269       0x30 d:/devkitpror43/devkitarm/bin/../lib/gcc/arm-none-eabi/5.3.0/../../../../arm-none-eabi/lib\libc.a(lib_a-svfiprintf.o)
 .ARM.attributes
                0x00002299       0x30 d:/devkitpror43/devkitarm/bin/../lib/gcc/arm-none-eabi/5.3.0/../../../../arm-none-eabi/lib\libc.a(lib_a-wbuf.o)
 .ARM.attributes
                0x000022c9       0x30 d:/devkitpror43/devkitarm/bin/../lib/gcc/arm-none-eabi/5.3.0/../../../../arm-none-eabi/lib\libc.a(lib_a-wcsnrtombs.o)
 .ARM.attributes
                0x000022f9       0x30 d:/devkitpror43/devkitarm/bin/../lib/gcc/arm-none-eabi/5.3.0/../../../../arm-none-eabi/lib\libc.a(lib_a-gdtoa-gethex.o)
 .ARM.attributes
                0x00002329       0x30 d:/devkitpror43/devkitarm/bin/../lib/gcc/arm-none-eabi/5.3.0/../../../../arm-none-eabi/lib\libc.a(lib_a-gdtoa-hexnan.o)
 .ARM.attributes
                0x00002359       0x30 d:/devkitpror43/devkitarm/bin/../lib/gcc/arm-none-eabi/5.3.0/../../../../arm-none-eabi/lib\libsysbase.a(iosupport.o)
 .ARM.attributes
                0x00002389       0x30 d:/devkitpror43/devkitarm/bin/../lib/gcc/arm-none-eabi/5.3.0/../../../../arm-none-eabi/lib\libsysbase.a(close.o)
 .ARM.attributes
                0x000023b9       0x30 d:/devkitpror43/devkitarm/bin/../lib/gcc/arm-none-eabi/5.3.0/../../../../arm-none-eabi/lib\libsysbase.a(fstat.o)
 .ARM.attributes
                0x000023e9       0x30 d:/devkitpror43/devkitarm/bin/../lib/gcc/arm-none-eabi/5.3.0/../../../../arm-none-eabi/lib\libsysbase.a(getpid.o)
 .ARM.attributes
                0x00002419       0x30 d:/devkitpror43/devkitarm/bin/../lib/gcc/arm-none-eabi/5.3.0/../../../../arm-none-eabi/lib\libsysbase.a(gettod.o)
 .ARM.attributes
                0x00002449       0x30 d:/devkitpror43/devkitarm/bin/../lib/gcc/arm-none-eabi/5.3.0/../../../../arm-none-eabi/lib\libsysbase.a(isatty.o)
 .ARM.attributes
                0x00002479       0x30 d:/devkitpror43/devkitarm/bin/../lib/gcc/arm-none-eabi/5.3.0/../../../../arm-none-eabi/lib\libsysbase.a(kill.o)
 .ARM.attributes
                0x000024a9       0x30 d:/devkitpror43/devkitarm/bin/../lib/gcc/arm-none-eabi/5.3.0/../../../../arm-none-eabi/lib\libsysbase.a(lseek.o)
 .ARM.attributes
                0x000024d9       0x30 d:/devkitpror43/devkitarm/bin/../lib/gcc/arm-none-eabi/5.3.0/../../../../arm-none-eabi/lib\libsysbase.a(open.o)
 .ARM.attributes
                0x00002509       0x30 d:/devkitpror43/devkitarm/bin/../lib/gcc/arm-none-eabi/5.3.0/../../../../arm-none-eabi/lib\libsysbase.a(read.o)
 .ARM.attributes
                0x00002539       0x30 d:/devkitpror43/devkitarm/bin/../lib/gcc/arm-none-eabi/5.3.0/../../../../arm-none-eabi/lib\libsysbase.a(sbrk.o)
 .ARM.attributes
                0x00002569       0x30 d:/devkitpror43/devkitarm/bin/../lib/gcc/arm-none-eabi/5.3.0/../../../../arm-none-eabi/lib\libsysbase.a(write.o)
 .ARM.attributes
                0x00002599       0x30 d:/devkitpror43/devkitarm/bin/../lib/gcc/arm-none-eabi/5.3.0/../../../../arm-none-eabi/lib\libsysbase.a(_exit.o)
 .ARM.attributes
                0x000025c9       0x30 d:/devkitpror43/devkitarm/bin/../lib/gcc/arm-none-eabi/5.3.0/../../../../arm-none-eabi/lib\libsysbase.a(malloc_vars.o)
 .ARM.attributes
                0x000025f9       0x30 d:/devkitpror43/devkitarm/bin/../lib/gcc/arm-none-eabi/5.3.0/../../../../arm-none-eabi/lib\libsysbase.a(chdir.o)
 .ARM.attributes
                0x00002629       0x30 d:/devkitpror43/devkitarm/bin/../lib/gcc/arm-none-eabi/5.3.0/../../../../arm-none-eabi/lib\libsysbase.a(build_argv.o)
 .ARM.attributes
                0x00002659       0x30 d:/devkitpror43/devkitarm/bin/../lib/gcc/arm-none-eabi/5.3.0/../../../../arm-none-eabi/lib\libsysbase.a(flock.o)
 .ARM.attributes
                0x00002689       0x30 d:/devkitpror43/devkitarm/bin/../lib/gcc/arm-none-eabi/5.3.0/../../../../arm-none-eabi/lib\libsysbase.a(syscall_support.o)
 .ARM.attributes
                0x000026b9       0x30 d:/devkitpror43/devkitarm/bin/../lib/gcc/arm-none-eabi/5.3.0/../../../../arm-none-eabi/lib\libsysbase.a(handle_manager.o)
 .ARM.attributes
                0x000026e9       0x30 d:/devkitpror43/devkitarm/bin/../lib/gcc/arm-none-eabi/5.3.0/../../../../arm-none-eabi/lib\libsysbase.a(dirent.o)
 .ARM.attributes
                0x00002719       0x30 d:/devkitpror43/devkitarm/bin/../lib/gcc/arm-none-eabi/5.3.0/../../../../arm-none-eabi/lib\libsysbase.a(getreent.o)
 .ARM.attributes
                0x00002749       0x18 d:/devkitpror43/devkitarm/bin/../lib/gcc/arm-none-eabi/5.3.0\libgcc.a(_arm_truncdfsf2.o)
 .ARM.attributes
                0x00002761       0x18 d:/devkitpror43/devkitarm/bin/../lib/gcc/arm-none-eabi/5.3.0\libgcc.a(_aeabi_uldivmod.o)
 .ARM.attributes
                0x00002779       0x30 d:/devkitpror43/devkitarm/bin/../lib/gcc/arm-none-eabi/5.3.0\libgcc.a(_udivmoddi4.o)
 .ARM.attributes
                0x000027a9       0x18 d:/devkitpror43/devkitarm/bin/../lib/gcc/arm-none-eabi/5.3.0\libgcc.a(_clzdi2.o)
 .ARM.attributes
                0x000027c1       0x18 d:/devkitpror43/devkitarm/bin/../lib/gcc/arm-none-eabi/5.3.0\libgcc.a(_clzsi2.o)
 .ARM.attributes
                0x000027d9       0x30 d:/devkitpror43/devkitarm/bin/../lib/gcc/arm-none-eabi/5.3.0/crtend.o
 .ARM.attributes
                0x00002809       0x18 d:/devkitpror43/devkitarm/bin/../lib/gcc/arm-none-eabi/5.3.0/crtn.o

.debug
 *(.debug)

.line
 *(.line)

.debug_srcinfo
 *(.debug_srcinfo)

.debug_sfnames
 *(.debug_sfnames)

.debug_aranges  0x00000000       0x20
 *(.debug_aranges)
 .debug_aranges
                0x00000000       0x20 d:/devkitPror43/libnds/lib\libnds9.a(biosCalls.o)

.debug_pubnames
 *(.debug_pubnames)

.debug_info     0x00000000       0xcd
 *(.debug_info)
 .debug_info    0x00000000       0xcd d:/devkitPror43/libnds/lib\libnds9.a(biosCalls.o)

.debug_abbrev   0x00000000       0x14
 *(.debug_abbrev)
 .debug_abbrev  0x00000000       0x14 d:/devkitPror43/libnds/lib\libnds9.a(biosCalls.o)

.debug_line     0x00000000       0xc5
 *(.debug_line)
 .debug_line    0x00000000       0xc5 d:/devkitPror43/libnds/lib\libnds9.a(biosCalls.o)

.debug_frame
 *(.debug_frame)

.debug_str
 *(.debug_str)

.debug_loc
 *(.debug_loc)

.debug_macinfo
 *(.debug_macinfo)

.debug_weaknames
 *(.debug_weaknames)

.debug_funcnames
 *(.debug_funcnames)

.debug_typenames
 *(.debug_typenames)

.debug_varnames
 *(.debug_varnames)

.stack          0x00080000        0x0
                0x00080000                _stack = .
 *(.stack)
LOAD d:/devkitpror43/devkitarm/bin/../lib/gcc/arm-none-eabi/5.3.0/../../../../arm-none-eabi/lib/ds_arm9_crt0.o
LOAD d:/devkitpror43/devkitarm/bin/../lib/gcc/arm-none-eabi/5.3.0/crti.o
LOAD d:/devkitpror43/devkitarm/bin/../lib/gcc/arm-none-eabi/5.3.0/crtbegin.o
LOAD default_font.bin.o
LOAD EEprom.o
LOAD Flash.o
LOAD GBA.arm.o
LOAD Globals.o
LOAD RTC.o
LOAD Sound.arm.o
LOAD Sram.o
LOAD System.o
LOAD Util.o
LOAD agbprint.o
LOAD armdis.o
LOAD bios.o
LOAD cheatsys_extractor.o
LOAD cpumg.o
LOAD irqstuf.arm.o
LOAD main.o
LOAD mydebuger.o
LOAD fatfileextract.o
LOAD file_browse.o
LOAD anothercpu.arm.o
LOAD dswnifi.o
LOAD gba_ipc.o
LOAD wifi_shared.o
LOAD dswnifi_lib.o
LOAD sgIP.o
LOAD sgIP_ARP.o
LOAD sgIP_DHCP.o
LOAD sgIP_DNS.o
LOAD sgIP_Hub.o
LOAD sgIP_ICMP.o
LOAD sgIP_IP.o
LOAD sgIP_TCP.o
LOAD sgIP_UDP.o
LOAD sgIP_memblock.o
LOAD sgIP_sockets.o
LOAD wifi_arm9.o
LOAD cache.o
LOAD directory.o
LOAD disc.o
LOAD dldi.o
LOAD fatdir.o
LOAD fatfile.o
LOAD file_allocation_table.o
LOAD filetime.o
LOAD libfat.o
LOAD lock.o
LOAD partition.o
LOAD touch_ipc.o
LOAD background.o
LOAD console.o
LOAD devkitpatcher.o
LOAD interrupts.o
LOAD keys.o
LOAD libnds_exit.o
LOAD sassert.o
LOAD trig.o
LOAD video.o
LOAD fifo_handler.o
LOAD spinlock.o
LOAD cpu_s.o
LOAD dcache.o
LOAD ex_s.o
LOAD icache.o
LOAD interruptDispatcher.o
LOAD mpu_setup.o
LOAD dldi_stub.o
LOAD d:/devkitPror43/libnds/lib\libnds9.a
LOAD d:/devkitpror43/devkitarm/bin/../lib/gcc/arm-none-eabi/5.3.0/../../../../arm-none-eabi/lib\libstdc++.a
LOAD d:/devkitpror43/devkitarm/bin/../lib/gcc/arm-none-eabi/5.3.0/../../../../arm-none-eabi/lib\libm.a
START GROUP
LOAD d:/devkitpror43/devkitarm/bin/../lib/gcc/arm-none-eabi/5.3.0\libgcc.a
LOAD d:/devkitpror43/devkitarm/bin/../lib/gcc/arm-none-eabi/5.3.0/../../../../arm-none-eabi/lib\libc.a
LOAD d:/devkitpror43/devkitarm/bin/../lib/gcc/arm-none-eabi/5.3.0/../../../../arm-none-eabi/lib\libsysbase.a
END GROUP
LOAD d:/devkitpror43/devkitarm/bin/../lib/gcc/arm-none-eabi/5.3.0/crtend.o
LOAD d:/devkitpror43/devkitarm/bin/../lib/gcc/arm-none-eabi/5.3.0/crtn.o
OUTPUT(c:/github_clone/gbaemu4ds/arm9/arm9.elf elf32-littlearm)
